(lp1
ccopy_reg
_reconstructor
p2
(ctweepy.models
ResultSet
p3
c__builtin__
list
p4
(ltRp5
(dp6
S'_since_id'
p7
NsS'_max_id'
p8
Nsbag2
(g3
g4
(ltRp9
(dp10
g7
Nsg8
Nsbag2
(g3
g4
(ltRp11
(dp12
g7
Nsg8
Nsbag2
(g3
g4
(ltRp13
(dp14
g7
Nsg8
Nsbag2
(g3
g4
(ltRp15
(dp16
g7
Nsg8
Nsbag2
(g3
g4
(ltRp17
(dp18
g7
Nsg8
Nsbag2
(g3
g4
(ltRp19
(dp20
g7
Nsg8
Nsbag2
(g3
g4
(ltRp21
(dp22
g7
Nsg8
Nsbag2
(g3
g4
(ltRp23
(dp24
g7
Nsg8
Nsbag2
(g3
g4
(ltRp25
(dp26
g7
Nsg8
Nsbag2
(g3
g4
(ltRp27
(dp28
g7
Nsg8
Nsbag2
(g3
g4
(ltRp29
(dp30
g7
Nsg8
Nsbag2
(g3
g4
(ltRp31
(dp32
g7
Nsg8
Nsbag2
(g3
g4
(ltRp33
(dp34
g7
Nsg8
Nsbag2
(g3
g4
(ltRp35
(dp36
g7
Nsg8
Nsbag2
(g3
g4
(ltRp37
(dp38
g7
Nsg8
Nsbag2
(g3
g4
(ltRp39
(dp40
g7
Nsg8
Nsbag2
(g3
g4
(ltRp41
(dp42
g7
Nsg8
Nsbag2
(g3
g4
(ltRp43
(dp44
g7
Nsg8
Nsbag2
(g3
g4
(ltRp45
(dp46
g7
Nsg8
Nsbag2
(g3
g4
(ltRp47
(dp48
g7
Nsg8
Nsbag2
(g3
g4
(ltRp49
(dp50
g7
Nsg8
Nsbag2
(g3
g4
(ltRp51
(dp52
g7
Nsg8
Nsbag2
(g3
g4
(ltRp53
(dp54
g7
Nsg8
Nsbag2
(g3
g4
(ltRp55
(dp56
g7
Nsg8
Nsbag2
(g3
g4
(ltRp57
(dp58
g7
Nsg8
Nsbag2
(g3
g4
(ltRp59
(dp60
g7
Nsg8
Nsbag2
(g3
g4
(ltRp61
(dp62
g7
Nsg8
Nsbag2
(g3
g4
(ltRp63
(dp64
g7
Nsg8
Nsbag2
(g3
g4
(ltRp65
(dp66
g7
Nsg8
Nsbag2
(g3
g4
(ltRp67
(dp68
g7
Nsg8
Nsbag2
(g3
g4
(ltRp69
(dp70
g7
Nsg8
Nsbag2
(g3
g4
(ltRp71
(dp72
g7
Nsg8
Nsbag2
(g3
g4
(ltRp73
(dp74
g7
Nsg8
Nsbag2
(g3
g4
(ltRp75
(dp76
g7
Nsg8
Nsbag2
(g3
g4
(ltRp77
(dp78
g7
Nsg8
Nsbag2
(g3
g4
(ltRp79
(dp80
g7
Nsg8
Nsbag2
(g3
g4
(ltRp81
(dp82
g7
Nsg8
Nsbag2
(g3
g4
(ltRp83
(dp84
g7
Nsg8
Nsbag2
(g3
g4
(ltRp85
(dp86
g7
Nsg8
Nsbag2
(g3
g4
(ltRp87
(dp88
g7
Nsg8
Nsbag2
(g3
g4
(ltRp89
(dp90
g7
Nsg8
Nsbag2
(g3
g4
(ltRp91
(dp92
g7
Nsg8
Nsbag2
(g3
g4
(ltRp93
(dp94
g7
Nsg8
Nsbag2
(g3
g4
(ltRp95
(dp96
g7
Nsg8
Nsbag2
(g3
g4
(ltRp97
(dp98
g7
Nsg8
Nsbag2
(g3
g4
(ltRp99
(dp100
g7
Nsg8
Nsbag2
(g3
g4
(ltRp101
(dp102
g7
Nsg8
Nsbag2
(g3
g4
(ltRp103
(dp104
g7
Nsg8
Nsbag2
(g3
g4
(ltRp105
(dp106
g7
Nsg8
Nsbag2
(g3
g4
(ltRp107
(dp108
g7
Nsg8
Nsbag2
(g3
g4
(ltRp109
(dp110
g7
Nsg8
Nsbag2
(g3
g4
(ltRp111
(dp112
g7
Nsg8
Nsbag2
(g3
g4
(ltRp113
(dp114
g7
Nsg8
Nsbag2
(g3
g4
(ltRp115
(dp116
g7
Nsg8
Nsbag2
(g3
g4
(ltRp117
(dp118
g7
Nsg8
Nsbag2
(g3
g4
(ltRp119
(dp120
g7
Nsg8
Nsbag2
(g3
g4
(ltRp121
(dp122
g7
Nsg8
Nsbag2
(g3
g4
(ltRp123
(dp124
g7
Nsg8
Nsbag2
(g3
g4
(ltRp125
(dp126
g7
Nsg8
Nsbag2
(g3
g4
(ltRp127
(dp128
g7
Nsg8
Nsbag2
(g3
g4
(ltRp129
(dp130
g7
Nsg8
Nsbag2
(g3
g4
(ltRp131
(dp132
g7
Nsg8
Nsbag2
(g3
g4
(ltRp133
(dp134
g7
Nsg8
Nsbag2
(g3
g4
(ltRp135
(dp136
g7
Nsg8
Nsbag2
(g3
g4
(ltRp137
(dp138
g7
Nsg8
Nsbag2
(g3
g4
(ltRp139
(dp140
g7
Nsg8
Nsbag2
(g3
g4
(ltRp141
(dp142
g7
Nsg8
Nsbag2
(g3
g4
(ltRp143
(dp144
g7
Nsg8
Nsbag2
(g3
g4
(ltRp145
(dp146
g7
Nsg8
Nsbag2
(g3
g4
(ltRp147
(dp148
g7
Nsg8
Nsbag2
(g3
g4
(ltRp149
(dp150
g7
Nsg8
Nsbag2
(g3
g4
(ltRp151
(dp152
g7
Nsg8
Nsbag2
(g3
g4
(ltRp153
(dp154
g7
Nsg8
Nsbag2
(g3
g4
(ltRp155
(dp156
g7
Nsg8
Nsbag2
(g3
g4
(ltRp157
(dp158
g7
Nsg8
Nsbag2
(g3
g4
(ltRp159
(dp160
g7
Nsg8
Nsbag2
(g3
g4
(ltRp161
(dp162
g7
Nsg8
Nsbag2
(g3
g4
(ltRp163
(dp164
g7
Nsg8
Nsbag2
(g3
g4
(ltRp165
(dp166
g7
Nsg8
Nsbag2
(g3
g4
(ltRp167
(dp168
g7
Nsg8
Nsbag2
(g3
g4
(ltRp169
(dp170
g7
Nsg8
Nsbag2
(g3
g4
(ltRp171
(dp172
g7
Nsg8
Nsbag2
(g3
g4
(ltRp173
(dp174
g7
Nsg8
Nsbag2
(g3
g4
(ltRp175
(dp176
g7
Nsg8
Nsbag2
(g3
g4
(ltRp177
(dp178
g7
Nsg8
Nsbag2
(g3
g4
(ltRp179
(dp180
g7
Nsg8
Nsbag2
(g3
g4
(ltRp181
(dp182
g7
Nsg8
Nsbag2
(g3
g4
(ltRp183
(dp184
g7
Nsg8
Nsbag2
(g3
g4
(ltRp185
(dp186
g7
Nsg8
Nsbag2
(g3
g4
(ltRp187
(dp188
g7
Nsg8
Nsbag2
(g3
g4
(ltRp189
(dp190
g7
Nsg8
Nsbag2
(g3
g4
(ltRp191
(dp192
g7
Nsg8
Nsbag2
(g3
g4
(ltRp193
(dp194
g7
Nsg8
Nsbag2
(g3
g4
(ltRp195
(dp196
g7
Nsg8
Nsbag2
(g3
g4
(ltRp197
(dp198
g7
Nsg8
Nsbag2
(g3
g4
(ltRp199
(dp200
g7
Nsg8
Nsbag2
(g3
g4
(ltRp201
(dp202
g7
Nsg8
Nsbag2
(g3
g4
(ltRp203
(dp204
g7
Nsg8
Nsbag2
(g3
g4
(ltRp205
(dp206
g7
Nsg8
Nsbag2
(g3
g4
(ltRp207
(dp208
g7
Nsg8
Nsbag2
(g3
g4
(ltRp209
(dp210
g7
Nsg8
Nsbag2
(g3
g4
(ltRp211
(dp212
g7
Nsg8
Nsbag2
(g3
g4
(ltRp213
(dp214
g7
Nsg8
Nsbag2
(g3
g4
(ltRp215
(dp216
g7
Nsg8
Nsbag2
(g3
g4
(ltRp217
(dp218
g7
Nsg8
Nsbag2
(g3
g4
(ltRp219
(dp220
g7
Nsg8
Nsbag2
(g3
g4
(ltRp221
(dp222
g7
Nsg8
Nsbag2
(g3
g4
(ltRp223
(dp224
g7
Nsg8
Nsbag2
(g3
g4
(ltRp225
(dp226
g7
Nsg8
Nsbag2
(g3
g4
(ltRp227
(dp228
g7
Nsg8
Nsbag2
(g3
g4
(ltRp229
(dp230
g7
Nsg8
Nsbag2
(g3
g4
(ltRp231
(dp232
g7
Nsg8
Nsbag2
(g3
g4
(ltRp233
(dp234
g7
Nsg8
Nsbag2
(g3
g4
(ltRp235
(dp236
g7
Nsg8
Nsbag2
(g3
g4
(ltRp237
(dp238
g7
Nsg8
Nsbag2
(g3
g4
(ltRp239
(dp240
g7
Nsg8
Nsbag2
(g3
g4
(ltRp241
(dp242
g7
Nsg8
Nsbag2
(g3
g4
(ltRp243
(dp244
g7
Nsg8
Nsbag2
(g3
g4
(ltRp245
(dp246
g7
Nsg8
Nsbag2
(g3
g4
(ltRp247
(dp248
g7
Nsg8
Nsbag2
(g3
g4
(ltRp249
(dp250
g7
Nsg8
Nsbag2
(g3
g4
(ltRp251
(dp252
g7
Nsg8
Nsbag2
(g3
g4
(ltRp253
(dp254
g7
Nsg8
Nsbag2
(g3
g4
(ltRp255
(dp256
g7
Nsg8
Nsbag2
(g3
g4
(ltRp257
(dp258
g7
Nsg8
Nsbag2
(g3
g4
(ltRp259
(dp260
g7
Nsg8
Nsbag2
(g3
g4
(ltRp261
(dp262
g7
Nsg8
Nsbag2
(g3
g4
(ltRp263
(dp264
g7
Nsg8
Nsbag2
(g3
g4
(ltRp265
(dp266
g7
Nsg8
Nsbag2
(g3
g4
(ltRp267
(dp268
g7
Nsg8
Nsbag2
(g3
g4
(ltRp269
(dp270
g7
Nsg8
Nsbag2
(g3
g4
(ltRp271
(dp272
g7
Nsg8
Nsbag2
(g3
g4
(ltRp273
(dp274
g7
Nsg8
Nsbag2
(g3
g4
(ltRp275
(dp276
g7
Nsg8
Nsbag2
(g3
g4
(ltRp277
(dp278
g7
Nsg8
Nsbag2
(g3
g4
(ltRp279
(dp280
g7
Nsg8
Nsbag2
(g3
g4
(ltRp281
(dp282
g7
Nsg8
Nsbag2
(g3
g4
(ltRp283
(dp284
g7
Nsg8
Nsbag2
(g3
g4
(ltRp285
(dp286
g7
Nsg8
Nsbag2
(g3
g4
(ltRp287
(dp288
g7
Nsg8
Nsbag2
(g3
g4
(ltRp289
(dp290
g7
Nsg8
Nsbag2
(g3
g4
(ltRp291
(dp292
g7
Nsg8
Nsbag2
(g3
g4
(ltRp293
(dp294
g7
Nsg8
Nsbag2
(g3
g4
(ltRp295
(dp296
g7
Nsg8
Nsbag2
(g3
g4
(ltRp297
(dp298
g7
Nsg8
Nsbag2
(g3
g4
(ltRp299
(dp300
g7
Nsg8
Nsbag2
(g3
g4
(ltRp301
(dp302
g7
Nsg8
Nsbag2
(g3
g4
(ltRp303
(dp304
g7
Nsg8
Nsbag2
(g3
g4
(ltRp305
(dp306
g7
Nsg8
Nsbag2
(g3
g4
(ltRp307
(dp308
g7
Nsg8
Nsbag2
(g3
g4
(ltRp309
(dp310
g7
Nsg8
Nsbag2
(g3
g4
(ltRp311
(dp312
g7
Nsg8
Nsbag2
(g3
g4
(ltRp313
(dp314
g7
Nsg8
Nsbag2
(g3
g4
(ltRp315
(dp316
g7
Nsg8
Nsbag2
(g3
g4
(ltRp317
(dp318
g7
Nsg8
Nsbag2
(g3
g4
(ltRp319
(dp320
g7
Nsg8
Nsbag2
(g3
g4
(ltRp321
(dp322
g7
Nsg8
Nsbag2
(g3
g4
(ltRp323
(dp324
g7
Nsg8
Nsbag2
(g3
g4
(ltRp325
(dp326
g7
Nsg8
Nsbag2
(g3
g4
(ltRp327
(dp328
g7
Nsg8
Nsbag2
(g3
g4
(ltRp329
(dp330
g7
Nsg8
Nsbag2
(g3
g4
(ltRp331
(dp332
g7
Nsg8
Nsbag2
(g3
g4
(ltRp333
(dp334
g7
Nsg8
Nsbag2
(g3
g4
(ltRp335
(dp336
g7
Nsg8
Nsbag2
(g3
g4
(ltRp337
(dp338
g7
Nsg8
Nsbag2
(g3
g4
(ltRp339
(dp340
g7
Nsg8
Nsbag2
(g3
g4
(ltRp341
(dp342
g7
Nsg8
Nsbag2
(g3
g4
(ltRp343
(dp344
g7
Nsg8
Nsbag2
(g3
g4
(ltRp345
(dp346
g7
Nsg8
Nsbag2
(g3
g4
(ltRp347
(dp348
g7
Nsg8
Nsbag2
(g3
g4
(ltRp349
(dp350
g7
Nsg8
Nsbag2
(g3
g4
(ltRp351
(dp352
g7
Nsg8
Nsbag2
(g3
g4
(ltRp353
(dp354
g7
Nsg8
Nsbag2
(g3
g4
(ltRp355
(dp356
g7
Nsg8
Nsbag2
(g3
g4
(ltRp357
(dp358
g7
Nsg8
Nsbag2
(g3
g4
(ltRp359
(dp360
g7
Nsg8
Nsbag2
(g3
g4
(ltRp361
(dp362
g7
Nsg8
Nsbag2
(g3
g4
(ltRp363
(dp364
g7
Nsg8
Nsbag2
(g3
g4
(ltRp365
(dp366
g7
Nsg8
Nsbag2
(g3
g4
(ltRp367
(dp368
g7
Nsg8
Nsbag2
(g3
g4
(ltRp369
(dp370
g7
Nsg8
Nsbag2
(g3
g4
(ltRp371
(dp372
g7
Nsg8
Nsbag2
(g3
g4
(ltRp373
(dp374
g7
Nsg8
Nsbag2
(g3
g4
(ltRp375
(dp376
g7
Nsg8
Nsbag2
(g3
g4
(ltRp377
(dp378
g7
Nsg8
Nsbag2
(g3
g4
(ltRp379
(dp380
g7
Nsg8
Nsbag2
(g3
g4
(ltRp381
(dp382
g7
Nsg8
Nsbag2
(g3
g4
(ltRp383
(dp384
g7
Nsg8
Nsbag2
(g3
g4
(ltRp385
(dp386
g7
Nsg8
Nsbag2
(g3
g4
(ltRp387
(dp388
g7
Nsg8
Nsbag2
(g3
g4
(ltRp389
(dp390
g7
Nsg8
Nsbag2
(g3
g4
(ltRp391
(dp392
g7
Nsg8
Nsbag2
(g3
g4
(ltRp393
(dp394
g7
Nsg8
Nsbag2
(g3
g4
(ltRp395
(dp396
g7
Nsg8
Nsbag2
(g3
g4
(ltRp397
(dp398
g7
Nsg8
Nsbag2
(g3
g4
(ltRp399
(dp400
g7
Nsg8
Nsbag2
(g3
g4
(ltRp401
(dp402
g7
Nsg8
Nsbag2
(g3
g4
(ltRp403
(dp404
g7
Nsg8
Nsbag2
(g3
g4
(ltRp405
(dp406
g7
Nsg8
Nsbag2
(g3
g4
(ltRp407
(dp408
g7
Nsg8
Nsbag2
(g3
g4
(ltRp409
(dp410
g7
Nsg8
Nsbag2
(g3
g4
(ltRp411
(dp412
g7
Nsg8
Nsbag2
(g3
g4
(ltRp413
(dp414
g7
Nsg8
Nsbag2
(g3
g4
(ltRp415
(dp416
g7
Nsg8
Nsbag2
(g3
g4
(ltRp417
(dp418
g7
Nsg8
Nsbag2
(g3
g4
(ltRp419
(dp420
g7
Nsg8
Nsbag2
(g3
g4
(ltRp421
(dp422
g7
Nsg8
Nsbag2
(g3
g4
(ltRp423
(dp424
g7
Nsg8
Nsbag2
(g3
g4
(ltRp425
(dp426
g7
Nsg8
Nsbag2
(g3
g4
(ltRp427
(dp428
g7
Nsg8
Nsbag2
(g3
g4
(ltRp429
(dp430
g7
Nsg8
Nsbag2
(g3
g4
(ltRp431
(dp432
g7
Nsg8
Nsbag2
(g3
g4
(ltRp433
(dp434
g7
Nsg8
Nsbag2
(g3
g4
(ltRp435
(dp436
g7
Nsg8
Nsbag2
(g3
g4
(ltRp437
(dp438
g7
Nsg8
Nsbag2
(g3
g4
(ltRp439
(dp440
g7
Nsg8
Nsbag2
(g3
g4
(ltRp441
(dp442
g7
Nsg8
Nsbag2
(g3
g4
(ltRp443
(dp444
g7
Nsg8
Nsbag2
(g3
g4
(ltRp445
(dp446
g7
Nsg8
Nsbag2
(g3
g4
(ltRp447
(dp448
g7
Nsg8
Nsbag2
(g3
g4
(ltRp449
(dp450
g7
Nsg8
Nsbag2
(g3
g4
(ltRp451
(dp452
g7
Nsg8
Nsbag2
(g3
g4
(ltRp453
(dp454
g7
Nsg8
Nsbag2
(g3
g4
(ltRp455
(dp456
g7
Nsg8
Nsbag2
(g3
g4
(ltRp457
(dp458
g7
Nsg8
Nsbag2
(g3
g4
(ltRp459
(dp460
g7
Nsg8
Nsbag2
(g3
g4
(ltRp461
(dp462
g7
Nsg8
Nsbag2
(g3
g4
(ltRp463
(dp464
g7
Nsg8
Nsbag2
(g3
g4
(ltRp465
(dp466
g7
Nsg8
Nsbag2
(g3
g4
(ltRp467
(dp468
g7
Nsg8
Nsbag2
(g3
g4
(ltRp469
(dp470
g7
Nsg8
Nsbag2
(g3
g4
(ltRp471
(dp472
g7
Nsg8
Nsbag2
(g3
g4
(ltRp473
(dp474
g7
Nsg8
Nsbag2
(g3
g4
(ltRp475
(dp476
g7
Nsg8
Nsbag2
(g3
g4
(ltRp477
(dp478
g7
Nsg8
Nsbag2
(g3
g4
(ltRp479
(dp480
g7
Nsg8
Nsbag2
(g3
g4
(ltRp481
(dp482
g7
Nsg8
Nsbag2
(g3
g4
(ltRp483
(dp484
g7
Nsg8
Nsbag2
(g3
g4
(ltRp485
(dp486
g7
Nsg8
Nsbag2
(g3
g4
(ltRp487
(dp488
g7
Nsg8
Nsbag2
(g3
g4
(ltRp489
(dp490
g7
Nsg8
Nsbag2
(g3
g4
(ltRp491
(dp492
g7
Nsg8
Nsbag2
(g3
g4
(ltRp493
(dp494
g7
Nsg8
Nsbag2
(g3
g4
(ltRp495
(dp496
g7
Nsg8
Nsbag2
(g3
g4
(ltRp497
(dp498
g7
Nsg8
Nsbag2
(g3
g4
(ltRp499
(dp500
g7
Nsg8
Nsbag2
(g3
g4
(ltRp501
(dp502
g7
Nsg8
Nsbag2
(g3
g4
(ltRp503
(dp504
g7
Nsg8
Nsbag2
(g3
g4
(ltRp505
(dp506
g7
Nsg8
Nsbag2
(g3
g4
(ltRp507
(dp508
g7
Nsg8
Nsbag2
(g3
g4
(ltRp509
(dp510
g7
Nsg8
Nsbag2
(g3
g4
(ltRp511
(dp512
g7
Nsg8
Nsbag2
(g3
g4
(ltRp513
(dp514
g7
Nsg8
Nsbag2
(g3
g4
(ltRp515
(dp516
g7
Nsg8
Nsbag2
(g3
g4
(ltRp517
(dp518
g7
Nsg8
Nsbag2
(g3
g4
(ltRp519
(dp520
g7
Nsg8
Nsbag2
(g3
g4
(ltRp521
(dp522
g7
Nsg8
Nsbag2
(g3
g4
(ltRp523
(dp524
g7
Nsg8
Nsbag2
(g3
g4
(ltRp525
(dp526
g7
Nsg8
Nsbag2
(g3
g4
(ltRp527
(dp528
g7
Nsg8
Nsbag2
(g3
g4
(ltRp529
(dp530
g7
Nsg8
Nsbag2
(g3
g4
(ltRp531
(dp532
g7
Nsg8
Nsbag2
(g3
g4
(ltRp533
(dp534
g7
Nsg8
Nsbag2
(g3
g4
(ltRp535
(dp536
g7
Nsg8
Nsbag2
(g3
g4
(ltRp537
(dp538
g7
Nsg8
Nsbag2
(g3
g4
(ltRp539
(dp540
g7
Nsg8
Nsbag2
(g3
g4
(ltRp541
(dp542
g7
Nsg8
Nsbag2
(g3
g4
(ltRp543
(dp544
g7
Nsg8
Nsbag2
(g3
g4
(ltRp545
(dp546
g7
Nsg8
Nsbag2
(g3
g4
(ltRp547
(dp548
g7
Nsg8
Nsbag2
(g3
g4
(ltRp549
(dp550
g7
Nsg8
Nsbag2
(g3
g4
(ltRp551
(dp552
g7
Nsg8
Nsbag2
(g3
g4
(ltRp553
(dp554
g7
Nsg8
Nsbag2
(g3
g4
(ltRp555
(dp556
g7
Nsg8
Nsbag2
(g3
g4
(ltRp557
(dp558
g7
Nsg8
Nsbag2
(g3
g4
(ltRp559
(dp560
g7
Nsg8
Nsbag2
(g3
g4
(ltRp561
(dp562
g7
Nsg8
Nsbag2
(g3
g4
(ltRp563
(dp564
g7
Nsg8
Nsbag2
(g3
g4
(ltRp565
(dp566
g7
Nsg8
Nsbag2
(g3
g4
(ltRp567
(dp568
g7
Nsg8
Nsbag2
(g3
g4
(ltRp569
(dp570
g7
Nsg8
Nsbag2
(g3
g4
(ltRp571
(dp572
g7
Nsg8
Nsbag2
(g3
g4
(ltRp573
(dp574
g7
Nsg8
Nsbag2
(g3
g4
(ltRp575
(dp576
g7
Nsg8
Nsbag2
(g3
g4
(ltRp577
(dp578
g7
Nsg8
Nsbag2
(g3
g4
(ltRp579
(dp580
g7
Nsg8
Nsbag2
(g3
g4
(ltRp581
(dp582
g7
Nsg8
Nsbag2
(g3
g4
(ltRp583
(dp584
g7
Nsg8
Nsbag2
(g3
g4
(ltRp585
(dp586
g7
Nsg8
Nsbag2
(g3
g4
(ltRp587
(dp588
g7
Nsg8
Nsbag2
(g3
g4
(ltRp589
(dp590
g7
Nsg8
Nsbag2
(g3
g4
(ltRp591
(dp592
g7
Nsg8
Nsbag2
(g3
g4
(ltRp593
(dp594
g7
Nsg8
Nsbag2
(g3
g4
(ltRp595
(dp596
g7
Nsg8
Nsbag2
(g3
g4
(ltRp597
(dp598
g7
Nsg8
Nsbag2
(g3
g4
(ltRp599
(dp600
g7
Nsg8
Nsbag2
(g3
g4
(ltRp601
(dp602
g7
Nsg8
Nsbag2
(g3
g4
(ltRp603
(dp604
g7
Nsg8
Nsbag2
(g3
g4
(ltRp605
(dp606
g7
Nsg8
Nsbag2
(g3
g4
(ltRp607
(dp608
g7
Nsg8
Nsbag2
(g3
g4
(ltRp609
(dp610
g7
Nsg8
Nsbag2
(g3
g4
(ltRp611
(dp612
g7
Nsg8
Nsbag2
(g3
g4
(ltRp613
(dp614
g7
Nsg8
Nsbag2
(g3
g4
(ltRp615
(dp616
g7
Nsg8
Nsbag2
(g3
g4
(ltRp617
(dp618
g7
Nsg8
Nsbag2
(g3
g4
(ltRp619
(dp620
g7
Nsg8
Nsbag2
(g3
g4
(ltRp621
(dp622
g7
Nsg8
Nsbag2
(g3
g4
(ltRp623
(dp624
g7
Nsg8
Nsbag2
(g3
g4
(ltRp625
(dp626
g7
Nsg8
Nsbag2
(g3
g4
(ltRp627
(dp628
g7
Nsg8
Nsbag2
(g3
g4
(ltRp629
(dp630
g7
Nsg8
Nsbag2
(g3
g4
(ltRp631
(dp632
g7
Nsg8
Nsbag2
(g3
g4
(ltRp633
(dp634
g7
Nsg8
Nsbag2
(g3
g4
(ltRp635
(dp636
g7
Nsg8
Nsbag2
(g3
g4
(ltRp637
(dp638
g7
Nsg8
Nsbag2
(g3
g4
(ltRp639
(dp640
g7
Nsg8
Nsbag2
(g3
g4
(ltRp641
(dp642
g7
Nsg8
Nsbag2
(g3
g4
(ltRp643
(dp644
g7
Nsg8
Nsbag2
(g3
g4
(ltRp645
(dp646
g7
Nsg8
Nsbag2
(g3
g4
(ltRp647
(dp648
g7
Nsg8
Nsbag2
(g3
g4
(ltRp649
(dp650
g7
Nsg8
Nsbag2
(g3
g4
(ltRp651
(dp652
g7
Nsg8
Nsbag2
(g3
g4
(ltRp653
(dp654
g7
Nsg8
Nsbag2
(g3
g4
(ltRp655
(dp656
g7
Nsg8
Nsbag2
(g3
g4
(ltRp657
(dp658
g7
Nsg8
Nsbag2
(g3
g4
(ltRp659
(dp660
g7
Nsg8
Nsbag2
(g3
g4
(ltRp661
(dp662
g7
Nsg8
Nsbag2
(g3
g4
(ltRp663
(dp664
g7
Nsg8
Nsbag2
(g3
g4
(ltRp665
(dp666
g7
Nsg8
Nsbag2
(g3
g4
(ltRp667
(dp668
g7
Nsg8
Nsbag2
(g3
g4
(ltRp669
(dp670
g7
Nsg8
Nsbag2
(g3
g4
(ltRp671
(dp672
g7
Nsg8
Nsbag2
(g3
g4
(ltRp673
(dp674
g7
Nsg8
Nsbag2
(g3
g4
(ltRp675
(dp676
g7
Nsg8
Nsbag2
(g3
g4
(ltRp677
(dp678
g7
Nsg8
Nsbag2
(g3
g4
(ltRp679
(dp680
g7
Nsg8
Nsbag2
(g3
g4
(ltRp681
(dp682
g7
Nsg8
Nsbag2
(g3
g4
(ltRp683
(dp684
g7
Nsg8
Nsbag2
(g3
g4
(ltRp685
(dp686
g7
Nsg8
Nsbag2
(g3
g4
(ltRp687
(dp688
g7
Nsg8
Nsbag2
(g3
g4
(ltRp689
(dp690
g7
Nsg8
Nsbag2
(g3
g4
(ltRp691
(dp692
g7
Nsg8
Nsbag2
(g3
g4
(ltRp693
(dp694
g7
Nsg8
Nsbag2
(g3
g4
(ltRp695
(dp696
g7
Nsg8
Nsbag2
(g3
g4
(ltRp697
(dp698
g7
Nsg8
Nsbag2
(g3
g4
(ltRp699
(dp700
g7
Nsg8
Nsbag2
(g3
g4
(ltRp701
(dp702
g7
Nsg8
Nsbag2
(g3
g4
(ltRp703
(dp704
g7
Nsg8
Nsbag2
(g3
g4
(ltRp705
(dp706
g7
Nsg8
Nsbag2
(g3
g4
(ltRp707
(dp708
g7
Nsg8
Nsbag2
(g3
g4
(ltRp709
(dp710
g7
Nsg8
Nsbag2
(g3
g4
(ltRp711
(dp712
g7
Nsg8
Nsbag2
(g3
g4
(ltRp713
(dp714
g7
Nsg8
Nsbag2
(g3
g4
(ltRp715
(dp716
g7
Nsg8
Nsbag2
(g3
g4
(ltRp717
(dp718
g7
Nsg8
Nsbag2
(g3
g4
(ltRp719
(dp720
g7
Nsg8
Nsbag2
(g3
g4
(ltRp721
(dp722
g7
Nsg8
Nsbag2
(g3
g4
(ltRp723
(dp724
g7
Nsg8
Nsbag2
(g3
g4
(ltRp725
(dp726
g7
Nsg8
Nsbag2
(g3
g4
(ltRp727
(dp728
g7
Nsg8
Nsbag2
(g3
g4
(ltRp729
(dp730
g7
Nsg8
Nsbag2
(g3
g4
(ltRp731
(dp732
g7
Nsg8
Nsbag2
(g3
g4
(ltRp733
(dp734
g7
Nsg8
Nsbag2
(g3
g4
(ltRp735
(dp736
g7
Nsg8
Nsbag2
(g3
g4
(ltRp737
(dp738
g7
Nsg8
Nsbag2
(g3
g4
(ltRp739
(dp740
g7
Nsg8
Nsbag2
(g3
g4
(ltRp741
(dp742
g7
Nsg8
Nsbag2
(g3
g4
(ltRp743
(dp744
g7
Nsg8
Nsbag2
(g3
g4
(ltRp745
(dp746
g7
Nsg8
Nsbag2
(g3
g4
(ltRp747
(dp748
g7
Nsg8
Nsbag2
(g3
g4
(ltRp749
(dp750
g7
Nsg8
Nsbag2
(g3
g4
(ltRp751
(dp752
g7
Nsg8
Nsbag2
(g3
g4
(ltRp753
(dp754
g7
Nsg8
Nsbag2
(g3
g4
(ltRp755
(dp756
g7
Nsg8
Nsbag2
(g3
g4
(ltRp757
(dp758
g7
Nsg8
Nsbag2
(g3
g4
(ltRp759
(dp760
g7
Nsg8
Nsbag2
(g3
g4
(ltRp761
(dp762
g7
Nsg8
Nsbag2
(g3
g4
(ltRp763
(dp764
g7
Nsg8
Nsbag2
(g3
g4
(ltRp765
(dp766
g7
Nsg8
Nsbag2
(g3
g4
(ltRp767
(dp768
g7
Nsg8
Nsbag2
(g3
g4
(ltRp769
(dp770
g7
Nsg8
Nsbag2
(g3
g4
(ltRp771
(dp772
g7
Nsg8
Nsbag2
(g3
g4
(ltRp773
(dp774
g7
Nsg8
Nsbag2
(g3
g4
(ltRp775
(dp776
g7
Nsg8
Nsbag2
(g3
g4
(ltRp777
(dp778
g7
Nsg8
Nsbag2
(g3
g4
(ltRp779
(dp780
g7
Nsg8
Nsbag2
(g3
g4
(ltRp781
(dp782
g7
Nsg8
Nsbag2
(g3
g4
(ltRp783
(dp784
g7
Nsg8
Nsbag2
(g3
g4
(ltRp785
(dp786
g7
Nsg8
Nsbag2
(g3
g4
(ltRp787
(dp788
g7
Nsg8
Nsbag2
(g3
g4
(ltRp789
(dp790
g7
Nsg8
Nsbag2
(g3
g4
(ltRp791
(dp792
g7
Nsg8
Nsbag2
(g3
g4
(ltRp793
(dp794
g7
Nsg8
Nsbag2
(g3
g4
(ltRp795
(dp796
g7
Nsg8
Nsbag2
(g3
g4
(ltRp797
(dp798
g7
Nsg8
Nsbag2
(g3
g4
(ltRp799
(dp800
g7
Nsg8
Nsbag2
(g3
g4
(ltRp801
(dp802
g7
Nsg8
Nsbag2
(g3
g4
(ltRp803
(dp804
g7
Nsg8
Nsbag2
(g3
g4
(ltRp805
(dp806
g7
Nsg8
Nsbag2
(g3
g4
(ltRp807
(dp808
g7
Nsg8
Nsbag2
(g3
g4
(ltRp809
(dp810
g7
Nsg8
Nsbag2
(g3
g4
(ltRp811
(dp812
g7
Nsg8
Nsbag2
(g3
g4
(ltRp813
(dp814
g7
Nsg8
Nsbag2
(g3
g4
(ltRp815
(dp816
g7
Nsg8
Nsbag2
(g3
g4
(ltRp817
(dp818
g7
Nsg8
Nsbag2
(g3
g4
(ltRp819
(dp820
g7
Nsg8
Nsbag2
(g3
g4
(ltRp821
(dp822
g7
Nsg8
Nsbag2
(g3
g4
(ltRp823
(dp824
g7
Nsg8
Nsbag2
(g3
g4
(ltRp825
(dp826
g7
Nsg8
Nsbag2
(g3
g4
(ltRp827
(dp828
g7
Nsg8
Nsbag2
(g3
g4
(ltRp829
(dp830
g7
Nsg8
Nsbag2
(g3
g4
(ltRp831
(dp832
g7
Nsg8
Nsbag2
(g3
g4
(ltRp833
(dp834
g7
Nsg8
Nsbag2
(g3
g4
(ltRp835
(dp836
g7
Nsg8
Nsbag2
(g3
g4
(ltRp837
(dp838
g7
Nsg8
Nsbag2
(g3
g4
(ltRp839
(dp840
g7
Nsg8
Nsbag2
(g3
g4
(ltRp841
(dp842
g7
Nsg8
Nsbag2
(g3
g4
(ltRp843
(dp844
g7
Nsg8
Nsbag2
(g3
g4
(ltRp845
(dp846
g7
Nsg8
Nsbag2
(g3
g4
(ltRp847
(dp848
g7
Nsg8
Nsbag2
(g3
g4
(ltRp849
(dp850
g7
Nsg8
Nsbag2
(g3
g4
(ltRp851
(dp852
g7
Nsg8
Nsbag2
(g3
g4
(ltRp853
(dp854
g7
Nsg8
Nsbag2
(g3
g4
(ltRp855
(dp856
g7
Nsg8
Nsbag2
(g3
g4
(ltRp857
(dp858
g7
Nsg8
Nsbag2
(g3
g4
(ltRp859
(dp860
g7
Nsg8
Nsbag2
(g3
g4
(ltRp861
(dp862
g7
Nsg8
Nsbag2
(g3
g4
(ltRp863
(dp864
g7
Nsg8
Nsbag2
(g3
g4
(ltRp865
(dp866
g7
Nsg8
Nsbag2
(g3
g4
(ltRp867
(dp868
g7
Nsg8
Nsbag2
(g3
g4
(ltRp869
(dp870
g7
Nsg8
Nsbag2
(g3
g4
(ltRp871
(dp872
g7
Nsg8
Nsbag2
(g3
g4
(ltRp873
(dp874
g7
Nsg8
Nsbag2
(g3
g4
(ltRp875
(dp876
g7
Nsg8
Nsbag2
(g3
g4
(ltRp877
(dp878
g7
Nsg8
Nsbag2
(g3
g4
(ltRp879
(dp880
g7
Nsg8
Nsbag2
(g3
g4
(ltRp881
(dp882
g7
Nsg8
Nsbag2
(g3
g4
(ltRp883
(dp884
g7
Nsg8
Nsbag2
(g3
g4
(ltRp885
(dp886
g7
Nsg8
Nsbag2
(g3
g4
(ltRp887
(dp888
g7
Nsg8
Nsbag2
(g3
g4
(ltRp889
(dp890
g7
Nsg8
Nsbag2
(g3
g4
(ltRp891
(dp892
g7
Nsg8
Nsbag2
(g3
g4
(ltRp893
(dp894
g7
Nsg8
Nsbag2
(g3
g4
(ltRp895
(dp896
g7
Nsg8
Nsbag2
(g3
g4
(ltRp897
(dp898
g7
Nsg8
Nsbag2
(g3
g4
(ltRp899
(dp900
g7
Nsg8
Nsbag2
(g3
g4
(ltRp901
(dp902
g7
Nsg8
Nsbag2
(g3
g4
(ltRp903
(dp904
g7
Nsg8
Nsbag2
(g3
g4
(ltRp905
(dp906
g7
Nsg8
Nsbag2
(g3
g4
(ltRp907
(dp908
g7
Nsg8
Nsbag2
(g3
g4
(ltRp909
(dp910
g7
Nsg8
Nsbag2
(g3
g4
(ltRp911
(dp912
g7
Nsg8
Nsbag2
(g3
g4
(ltRp913
(dp914
g7
Nsg8
Nsbag2
(g3
g4
(ltRp915
(dp916
g7
Nsg8
Nsbag2
(g3
g4
(ltRp917
(dp918
g7
Nsg8
Nsbag2
(g3
g4
(ltRp919
(dp920
g7
Nsg8
Nsbag2
(g3
g4
(ltRp921
(dp922
g7
Nsg8
Nsbag2
(g3
g4
(ltRp923
(dp924
g7
Nsg8
Nsbag2
(g3
g4
(ltRp925
(dp926
g7
Nsg8
Nsbag2
(g3
g4
(ltRp927
(dp928
g7
Nsg8
Nsbag2
(g3
g4
(ltRp929
(dp930
g7
Nsg8
Nsbag2
(g3
g4
(ltRp931
(dp932
g7
Nsg8
Nsbag2
(g3
g4
(ltRp933
(dp934
g7
Nsg8
Nsbag2
(g3
g4
(ltRp935
(dp936
g7
Nsg8
Nsbag2
(g3
g4
(ltRp937
(dp938
g7
Nsg8
Nsbag2
(g3
g4
(ltRp939
(dp940
g7
Nsg8
Nsbag2
(g3
g4
(ltRp941
(dp942
g7
Nsg8
Nsbag2
(g3
g4
(ltRp943
(dp944
g7
Nsg8
Nsbag2
(g3
g4
(ltRp945
(dp946
g7
Nsg8
Nsbag2
(g3
g4
(ltRp947
(dp948
g7
Nsg8
Nsbag2
(g3
g4
(ltRp949
(dp950
g7
Nsg8
Nsbag2
(g3
g4
(ltRp951
(dp952
g7
Nsg8
Nsbag2
(g3
g4
(ltRp953
(dp954
g7
Nsg8
Nsbag2
(g3
g4
(ltRp955
(dp956
g7
Nsg8
Nsbag2
(g3
g4
(ltRp957
(dp958
g7
Nsg8
Nsbag2
(g3
g4
(ltRp959
(dp960
g7
Nsg8
Nsbag2
(g3
g4
(ltRp961
(dp962
g7
Nsg8
Nsbag2
(g3
g4
(ltRp963
(dp964
g7
Nsg8
Nsbag2
(g3
g4
(ltRp965
(dp966
g7
Nsg8
Nsbag2
(g3
g4
(ltRp967
(dp968
g7
Nsg8
Nsbag2
(g3
g4
(ltRp969
(dp970
g7
Nsg8
Nsbag2
(g3
g4
(ltRp971
(dp972
g7
Nsg8
Nsbag2
(g3
g4
(ltRp973
(dp974
g7
Nsg8
Nsbag2
(g3
g4
(ltRp975
(dp976
g7
Nsg8
Nsbag2
(g3
g4
(ltRp977
(dp978
g7
Nsg8
Nsbag2
(g3
g4
(ltRp979
(dp980
g7
Nsg8
Nsbag2
(g3
g4
(ltRp981
(dp982
g7
Nsg8
Nsbag2
(g3
g4
(ltRp983
(dp984
g7
Nsg8
Nsbag2
(g3
g4
(ltRp985
(dp986
g7
Nsg8
Nsbag2
(g3
g4
(ltRp987
(dp988
g7
Nsg8
Nsbag2
(g3
g4
(ltRp989
(dp990
g7
Nsg8
Nsbag2
(g3
g4
(ltRp991
(dp992
g7
Nsg8
Nsbag2
(g3
g4
(ltRp993
(dp994
g7
Nsg8
Nsbag2
(g3
g4
(ltRp995
(dp996
g7
Nsg8
Nsbag2
(g3
g4
(ltRp997
(dp998
g7
Nsg8
Nsbag2
(g3
g4
(ltRp999
(dp1000
g7
Nsg8
Nsbag2
(g3
g4
(ltRp1001
(dp1002
g7
Nsg8
Nsbag2
(g3
g4
(ltRp1003
(dp1004
g7
Nsg8
Nsbag2
(g3
g4
(ltRp1005
(dp1006
g7
Nsg8
Nsbag2
(g3
g4
(ltRp1007
(dp1008
g7
Nsg8
Nsbag2
(g3
g4
(ltRp1009
(dp1010
g7
Nsg8
Nsbag2
(g3
g4
(ltRp1011
(dp1012
g7
Nsg8
Nsbag2
(g3
g4
(ltRp1013
(dp1014
g7
Nsg8
Nsbag2
(g3
g4
(ltRp1015
(dp1016
g7
Nsg8
Nsbag2
(g3
g4
(ltRp1017
(dp1018
g7
Nsg8
Nsbag2
(g3
g4
(ltRp1019
(dp1020
g7
Nsg8
Nsbag2
(g3
g4
(ltRp1021
(dp1022
g7
Nsg8
Nsbag2
(g3
g4
(ltRp1023
(dp1024
g7
Nsg8
Nsbag2
(g3
g4
(ltRp1025
(dp1026
g7
Nsg8
Nsbag2
(g3
g4
(ltRp1027
(dp1028
g7
Nsg8
Nsbag2
(g3
g4
(ltRp1029
(dp1030
g7
Nsg8
Nsbag2
(g3
g4
(ltRp1031
(dp1032
g7
Nsg8
Nsbag2
(g3
g4
(ltRp1033
(dp1034
g7
Nsg8
Nsbag2
(g3
g4
(ltRp1035
(dp1036
g7
Nsg8
Nsbag2
(g3
g4
(ltRp1037
(dp1038
g7
Nsg8
Nsbag2
(g3
g4
(ltRp1039
(dp1040
g7
Nsg8
Nsbag2
(g3
g4
(ltRp1041
(dp1042
g7
Nsg8
Nsbag2
(g3
g4
(ltRp1043
(dp1044
g7
Nsg8
Nsbag2
(g3
g4
(ltRp1045
(dp1046
g7
Nsg8
Nsbag2
(g3
g4
(ltRp1047
(dp1048
g7
Nsg8
Nsbag2
(g3
g4
(ltRp1049
(dp1050
g7
Nsg8
Nsbag2
(g3
g4
(ltRp1051
(dp1052
g7
Nsg8
Nsbag2
(g3
g4
(ltRp1053
(dp1054
g7
Nsg8
Nsbag2
(g3
g4
(ltRp1055
(dp1056
g7
Nsg8
Nsbag2
(g3
g4
(ltRp1057
(dp1058
g7
Nsg8
Nsbag2
(g3
g4
(ltRp1059
(dp1060
g7
Nsg8
Nsbag2
(g3
g4
(ltRp1061
(dp1062
g7
Nsg8
Nsbag2
(g3
g4
(ltRp1063
(dp1064
g7
Nsg8
Nsbag2
(g3
g4
(ltRp1065
(dp1066
g7
Nsg8
Nsbag2
(g3
g4
(ltRp1067
(dp1068
g7
Nsg8
Nsbag2
(g3
g4
(ltRp1069
(dp1070
g7
Nsg8
Nsbag2
(g3
g4
(ltRp1071
(dp1072
g7
Nsg8
Nsbag2
(g3
g4
(ltRp1073
(dp1074
g7
Nsg8
Nsbag2
(g3
g4
(ltRp1075
(dp1076
g7
Nsg8
Nsbag2
(g3
g4
(ltRp1077
(dp1078
g7
Nsg8
Nsbag2
(g3
g4
(ltRp1079
(dp1080
g7
Nsg8
Nsbag2
(g3
g4
(ltRp1081
(dp1082
g7
Nsg8
Nsbag2
(g3
g4
(ltRp1083
(dp1084
g7
Nsg8
Nsbag2
(g3
g4
(ltRp1085
(dp1086
g7
Nsg8
Nsbag2
(g3
g4
(ltRp1087
(dp1088
g7
Nsg8
Nsbag2
(g3
g4
(ltRp1089
(dp1090
g7
Nsg8
Nsbag2
(g3
g4
(ltRp1091
(dp1092
g7
Nsg8
Nsbag2
(g3
g4
(ltRp1093
(dp1094
g7
Nsg8
Nsbag2
(g3
g4
(ltRp1095
(dp1096
g7
Nsg8
Nsbag2
(g3
g4
(ltRp1097
(dp1098
g7
Nsg8
Nsbag2
(g3
g4
(ltRp1099
(dp1100
g7
Nsg8
Nsbag2
(g3
g4
(ltRp1101
(dp1102
g7
Nsg8
Nsbag2
(g3
g4
(ltRp1103
(dp1104
g7
Nsg8
Nsbag2
(g3
g4
(ltRp1105
(dp1106
g7
Nsg8
Nsbag2
(g3
g4
(ltRp1107
(dp1108
g7
Nsg8
Nsbag2
(g3
g4
(ltRp1109
(dp1110
g7
Nsg8
Nsbag2
(g3
g4
(ltRp1111
(dp1112
g7
Nsg8
Nsbag2
(g3
g4
(ltRp1113
(dp1114
g7
Nsg8
Nsbag2
(g3
g4
(ltRp1115
(dp1116
g7
Nsg8
Nsbag2
(g3
g4
(ltRp1117
(dp1118
g7
Nsg8
Nsbag2
(g3
g4
(ltRp1119
(dp1120
g7
Nsg8
Nsbag2
(g3
g4
(ltRp1121
(dp1122
g7
Nsg8
Nsbag2
(g3
g4
(ltRp1123
(dp1124
g7
Nsg8
Nsbag2
(g3
g4
(ltRp1125
(dp1126
g7
Nsg8
Nsbag2
(g3
g4
(ltRp1127
(dp1128
g7
Nsg8
Nsbag2
(g3
g4
(ltRp1129
(dp1130
g7
Nsg8
Nsbag2
(g3
g4
(ltRp1131
(dp1132
g7
Nsg8
Nsbag2
(g3
g4
(ltRp1133
(dp1134
g7
Nsg8
Nsbag2
(g3
g4
(ltRp1135
(dp1136
g7
Nsg8
Nsbag2
(g3
g4
(ltRp1137
(dp1138
g7
Nsg8
Nsbag2
(g3
g4
(ltRp1139
(dp1140
g7
Nsg8
Nsbag2
(g3
g4
(ltRp1141
(dp1142
g7
Nsg8
Nsbag2
(g3
g4
(ltRp1143
(dp1144
g7
Nsg8
Nsbag2
(g3
g4
(ltRp1145
(dp1146
g7
Nsg8
Nsbag2
(g3
g4
(ltRp1147
(dp1148
g7
Nsg8
Nsbag2
(g3
g4
(ltRp1149
(dp1150
g7
Nsg8
Nsbag2
(g3
g4
(ltRp1151
(dp1152
g7
Nsg8
Nsbag2
(g3
g4
(ltRp1153
(dp1154
g7
Nsg8
Nsbag2
(g3
g4
(ltRp1155
(dp1156
g7
Nsg8
Nsbag2
(g3
g4
(ltRp1157
(dp1158
g7
Nsg8
Nsbag2
(g3
g4
(ltRp1159
(dp1160
g7
Nsg8
Nsbag2
(g3
g4
(ltRp1161
(dp1162
g7
Nsg8
Nsbag2
(g3
g4
(ltRp1163
(dp1164
g7
Nsg8
Nsbag2
(g3
g4
(ltRp1165
(dp1166
g7
Nsg8
Nsbag2
(g3
g4
(ltRp1167
(dp1168
g7
Nsg8
Nsbag2
(g3
g4
(ltRp1169
(dp1170
g7
Nsg8
Nsbag2
(g3
g4
(ltRp1171
(dp1172
g7
Nsg8
Nsbag2
(g3
g4
(ltRp1173
(dp1174
g7
Nsg8
Nsbag2
(g3
g4
(ltRp1175
(dp1176
g7
Nsg8
Nsbag2
(g3
g4
(ltRp1177
(dp1178
g7
Nsg8
Nsbag2
(g3
g4
(ltRp1179
(dp1180
g7
Nsg8
Nsbag2
(g3
g4
(ltRp1181
(dp1182
g7
Nsg8
Nsbag2
(g3
g4
(ltRp1183
(dp1184
g7
Nsg8
Nsbag2
(g3
g4
(ltRp1185
(dp1186
g7
Nsg8
Nsbag2
(g3
g4
(ltRp1187
(dp1188
g7
Nsg8
Nsbag2
(g3
g4
(ltRp1189
(dp1190
g7
Nsg8
Nsbag2
(g3
g4
(ltRp1191
(dp1192
g7
Nsg8
Nsbag2
(g3
g4
(ltRp1193
(dp1194
g7
Nsg8
Nsbag2
(g3
g4
(ltRp1195
(dp1196
g7
Nsg8
Nsbag2
(g3
g4
(ltRp1197
(dp1198
g7
Nsg8
Nsbag2
(g3
g4
(ltRp1199
(dp1200
g7
Nsg8
Nsbag2
(g3
g4
(ltRp1201
(dp1202
g7
Nsg8
Nsbag2
(g3
g4
(ltRp1203
(dp1204
g7
Nsg8
Nsbag2
(g3
g4
(ltRp1205
(dp1206
g7
Nsg8
Nsbag2
(g3
g4
(ltRp1207
(dp1208
g7
Nsg8
Nsbag2
(g3
g4
(ltRp1209
(dp1210
g7
Nsg8
Nsbag2
(g3
g4
(ltRp1211
(dp1212
g7
Nsg8
Nsbag2
(g3
g4
(ltRp1213
(dp1214
g7
Nsg8
Nsbag2
(g3
g4
(ltRp1215
(dp1216
g7
Nsg8
Nsbag2
(g3
g4
(ltRp1217
(dp1218
g7
Nsg8
Nsbag2
(g3
g4
(ltRp1219
(dp1220
g7
Nsg8
Nsbag2
(g3
g4
(ltRp1221
(dp1222
g7
Nsg8
Nsbag2
(g3
g4
(ltRp1223
(dp1224
g7
Nsg8
Nsbag2
(g3
g4
(ltRp1225
(dp1226
g7
Nsg8
Nsbag2
(g3
g4
(ltRp1227
(dp1228
g7
Nsg8
Nsbag2
(g3
g4
(ltRp1229
(dp1230
g7
Nsg8
Nsbag2
(g3
g4
(ltRp1231
(dp1232
g7
Nsg8
Nsbag2
(g3
g4
(ltRp1233
(dp1234
g7
Nsg8
Nsbag2
(g3
g4
(ltRp1235
(dp1236
g7
Nsg8
Nsbag2
(g3
g4
(ltRp1237
(dp1238
g7
Nsg8
Nsbag2
(g3
g4
(ltRp1239
(dp1240
g7
Nsg8
Nsbag2
(g3
g4
(ltRp1241
(dp1242
g7
Nsg8
Nsbag2
(g3
g4
(ltRp1243
(dp1244
g7
Nsg8
Nsbag2
(g3
g4
(ltRp1245
(dp1246
g7
Nsg8
Nsbag2
(g3
g4
(ltRp1247
(dp1248
g7
Nsg8
Nsbag2
(g3
g4
(ltRp1249
(dp1250
g7
Nsg8
Nsbag2
(g3
g4
(ltRp1251
(dp1252
g7
Nsg8
Nsbag2
(g3
g4
(ltRp1253
(dp1254
g7
Nsg8
Nsbag2
(g3
g4
(ltRp1255
(dp1256
g7
Nsg8
Nsbag2
(g3
g4
(ltRp1257
(dp1258
g7
Nsg8
Nsbag2
(g3
g4
(ltRp1259
(dp1260
g7
Nsg8
Nsbag2
(g3
g4
(ltRp1261
(dp1262
g7
Nsg8
Nsbag2
(g3
g4
(ltRp1263
(dp1264
g7
Nsg8
Nsbag2
(g3
g4
(ltRp1265
(dp1266
g7
Nsg8
Nsbag2
(g3
g4
(ltRp1267
(dp1268
g7
Nsg8
Nsbag2
(g3
g4
(ltRp1269
(dp1270
g7
Nsg8
Nsbag2
(g3
g4
(ltRp1271
(dp1272
g7
Nsg8
Nsbag2
(g3
g4
(ltRp1273
(dp1274
g7
Nsg8
Nsbag2
(g3
g4
(ltRp1275
(dp1276
g7
Nsg8
Nsbag2
(g3
g4
(ltRp1277
(dp1278
g7
Nsg8
Nsbag2
(g3
g4
(ltRp1279
(dp1280
g7
Nsg8
Nsbag2
(g3
g4
(ltRp1281
(dp1282
g7
Nsg8
Nsbag2
(g3
g4
(ltRp1283
(dp1284
g7
Nsg8
Nsbag2
(g3
g4
(ltRp1285
(dp1286
g7
Nsg8
Nsbag2
(g3
g4
(ltRp1287
(dp1288
g7
Nsg8
Nsbag2
(g3
g4
(ltRp1289
(dp1290
g7
Nsg8
Nsbag2
(g3
g4
(ltRp1291
(dp1292
g7
Nsg8
Nsbag2
(g3
g4
(ltRp1293
(dp1294
g7
Nsg8
Nsbag2
(g3
g4
(ltRp1295
(dp1296
g7
Nsg8
Nsbag2
(g3
g4
(ltRp1297
(dp1298
g7
Nsg8
Nsbag2
(g3
g4
(ltRp1299
(dp1300
g7
Nsg8
Nsbag2
(g3
g4
(ltRp1301
(dp1302
g7
Nsg8
Nsbag2
(g3
g4
(ltRp1303
(dp1304
g7
Nsg8
Nsbag2
(g3
g4
(ltRp1305
(dp1306
g7
Nsg8
Nsbag2
(g3
g4
(ltRp1307
(dp1308
g7
Nsg8
Nsbag2
(g3
g4
(ltRp1309
(dp1310
g7
Nsg8
Nsbag2
(g3
g4
(ltRp1311
(dp1312
g7
Nsg8
Nsbag2
(g3
g4
(ltRp1313
(dp1314
g7
Nsg8
Nsbag2
(g3
g4
(ltRp1315
(dp1316
g7
Nsg8
Nsbag2
(g3
g4
(ltRp1317
(dp1318
g7
Nsg8
Nsbag2
(g3
g4
(ltRp1319
(dp1320
g7
Nsg8
Nsbag2
(g3
g4
(ltRp1321
(dp1322
g7
Nsg8
Nsbag2
(g3
g4
(ltRp1323
(dp1324
g7
Nsg8
Nsbag2
(g3
g4
(ltRp1325
(dp1326
g7
Nsg8
Nsbag2
(g3
g4
(ltRp1327
(dp1328
g7
Nsg8
Nsbag2
(g3
g4
(ltRp1329
(dp1330
g7
Nsg8
Nsbag2
(g3
g4
(ltRp1331
(dp1332
g7
Nsg8
Nsbag2
(g3
g4
(ltRp1333
(dp1334
g7
Nsg8
Nsbag2
(g3
g4
(ltRp1335
(dp1336
g7
Nsg8
Nsbag2
(g3
g4
(ltRp1337
(dp1338
g7
Nsg8
Nsbag2
(g3
g4
(ltRp1339
(dp1340
g7
Nsg8
Nsbag2
(g3
g4
(ltRp1341
(dp1342
g7
Nsg8
Nsbag2
(g3
g4
(ltRp1343
(dp1344
g7
Nsg8
Nsbag2
(g3
g4
(ltRp1345
(dp1346
g7
Nsg8
Nsbag2
(g3
g4
(ltRp1347
(dp1348
g7
Nsg8
Nsbag2
(g3
g4
(ltRp1349
(dp1350
g7
Nsg8
Nsbag2
(g3
g4
(ltRp1351
(dp1352
g7
Nsg8
Nsbag2
(g3
g4
(ltRp1353
(dp1354
g7
Nsg8
Nsbag2
(g3
g4
(ltRp1355
(dp1356
g7
Nsg8
Nsbag2
(g3
g4
(ltRp1357
(dp1358
g7
Nsg8
Nsbag2
(g3
g4
(ltRp1359
(dp1360
g7
Nsg8
Nsbag2
(g3
g4
(ltRp1361
(dp1362
g7
Nsg8
Nsbag2
(g3
g4
(ltRp1363
(dp1364
g7
Nsg8
Nsbag2
(g3
g4
(ltRp1365
(dp1366
g7
Nsg8
Nsbag2
(g3
g4
(ltRp1367
(dp1368
g7
Nsg8
Nsbag2
(g3
g4
(ltRp1369
(dp1370
g7
Nsg8
Nsbag2
(g3
g4
(ltRp1371
(dp1372
g7
Nsg8
Nsbag2
(g3
g4
(ltRp1373
(dp1374
g7
Nsg8
Nsbag2
(g3
g4
(ltRp1375
(dp1376
g7
Nsg8
Nsbag2
(g3
g4
(ltRp1377
(dp1378
g7
Nsg8
Nsbag2
(g3
g4
(ltRp1379
(dp1380
g7
Nsg8
Nsbag2
(g3
g4
(ltRp1381
(dp1382
g7
Nsg8
Nsbag2
(g3
g4
(ltRp1383
(dp1384
g7
Nsg8
Nsbag2
(g3
g4
(ltRp1385
(dp1386
g7
Nsg8
Nsbag2
(g3
g4
(ltRp1387
(dp1388
g7
Nsg8
Nsbag2
(g3
g4
(ltRp1389
(dp1390
g7
Nsg8
Nsbag2
(g3
g4
(ltRp1391
(dp1392
g7
Nsg8
Nsbag2
(g3
g4
(ltRp1393
(dp1394
g7
Nsg8
Nsbag2
(g3
g4
(ltRp1395
(dp1396
g7
Nsg8
Nsbag2
(g3
g4
(ltRp1397
(dp1398
g7
Nsg8
Nsbag2
(g3
g4
(ltRp1399
(dp1400
g7
Nsg8
Nsbag2
(g3
g4
(ltRp1401
(dp1402
g7
Nsg8
Nsbag2
(g3
g4
(ltRp1403
(dp1404
g7
Nsg8
Nsbag2
(g3
g4
(ltRp1405
(dp1406
g7
Nsg8
Nsbag2
(g3
g4
(ltRp1407
(dp1408
g7
Nsg8
Nsbag2
(g3
g4
(ltRp1409
(dp1410
g7
Nsg8
Nsbag2
(g3
g4
(ltRp1411
(dp1412
g7
Nsg8
Nsbag2
(g3
g4
(ltRp1413
(dp1414
g7
Nsg8
Nsbag2
(g3
g4
(ltRp1415
(dp1416
g7
Nsg8
Nsbag2
(g3
g4
(ltRp1417
(dp1418
g7
Nsg8
Nsbag2
(g3
g4
(ltRp1419
(dp1420
g7
Nsg8
Nsbag2
(g3
g4
(ltRp1421
(dp1422
g7
Nsg8
Nsbag2
(g3
g4
(ltRp1423
(dp1424
g7
Nsg8
Nsbag2
(g3
g4
(ltRp1425
(dp1426
g7
Nsg8
Nsbag2
(g3
g4
(ltRp1427
(dp1428
g7
Nsg8
Nsbag2
(g3
g4
(ltRp1429
(dp1430
g7
Nsg8
Nsbag2
(g3
g4
(ltRp1431
(dp1432
g7
Nsg8
Nsbag2
(g3
g4
(ltRp1433
(dp1434
g7
Nsg8
Nsbag2
(g3
g4
(ltRp1435
(dp1436
g7
Nsg8
Nsbag2
(g3
g4
(ltRp1437
(dp1438
g7
Nsg8
Nsbag2
(g3
g4
(ltRp1439
(dp1440
g7
Nsg8
Nsbag2
(g3
g4
(ltRp1441
(dp1442
g7
Nsg8
Nsbag2
(g3
g4
(ltRp1443
(dp1444
g7
Nsg8
Nsbag2
(g3
g4
(ltRp1445
(dp1446
g7
Nsg8
Nsbag2
(g3
g4
(ltRp1447
(dp1448
g7
Nsg8
Nsbag2
(g3
g4
(ltRp1449
(dp1450
g7
Nsg8
Nsbag2
(g3
g4
(ltRp1451
(dp1452
g7
Nsg8
Nsbag2
(g3
g4
(ltRp1453
(dp1454
g7
Nsg8
Nsbag2
(g3
g4
(ltRp1455
(dp1456
g7
Nsg8
Nsbag2
(g3
g4
(ltRp1457
(dp1458
g7
Nsg8
Nsbag2
(g3
g4
(ltRp1459
(dp1460
g7
Nsg8
Nsbag2
(g3
g4
(ltRp1461
(dp1462
g7
Nsg8
Nsbag2
(g3
g4
(ltRp1463
(dp1464
g7
Nsg8
Nsbag2
(g3
g4
(ltRp1465
(dp1466
g7
Nsg8
Nsbag2
(g3
g4
(ltRp1467
(dp1468
g7
Nsg8
Nsbag2
(g3
g4
(ltRp1469
(dp1470
g7
Nsg8
Nsbag2
(g3
g4
(ltRp1471
(dp1472
g7
Nsg8
Nsbag2
(g3
g4
(ltRp1473
(dp1474
g7
Nsg8
Nsbag2
(g3
g4
(ltRp1475
(dp1476
g7
Nsg8
Nsbag2
(g3
g4
(ltRp1477
(dp1478
g7
Nsg8
Nsbag2
(g3
g4
(ltRp1479
(dp1480
g7
Nsg8
Nsbag2
(g3
g4
(ltRp1481
(dp1482
g7
Nsg8
Nsbag2
(g3
g4
(ltRp1483
(dp1484
g7
Nsg8
Nsbag2
(g3
g4
(ltRp1485
(dp1486
g7
Nsg8
Nsbag2
(g3
g4
(ltRp1487
(dp1488
g7
Nsg8
Nsbag2
(g3
g4
(ltRp1489
(dp1490
g7
Nsg8
Nsbag2
(g3
g4
(ltRp1491
(dp1492
g7
Nsg8
Nsbag2
(g3
g4
(ltRp1493
(dp1494
g7
Nsg8
Nsbag2
(g3
g4
(ltRp1495
(dp1496
g7
Nsg8
Nsbag2
(g3
g4
(ltRp1497
(dp1498
g7
Nsg8
Nsbag2
(g3
g4
(ltRp1499
(dp1500
g7
Nsg8
Nsbag2
(g3
g4
(ltRp1501
(dp1502
g7
Nsg8
Nsbag2
(g3
g4
(ltRp1503
(dp1504
g7
Nsg8
Nsbag2
(g3
g4
(ltRp1505
(dp1506
g7
Nsg8
Nsbag2
(g3
g4
(ltRp1507
(dp1508
g7
Nsg8
Nsbag2
(g3
g4
(ltRp1509
(dp1510
g7
Nsg8
Nsbag2
(g3
g4
(ltRp1511
(dp1512
g7
Nsg8
Nsbag2
(g3
g4
(ltRp1513
(dp1514
g7
Nsg8
Nsbag2
(g3
g4
(ltRp1515
(dp1516
g7
Nsg8
Nsbag2
(g3
g4
(ltRp1517
(dp1518
g7
Nsg8
Nsbag2
(g3
g4
(ltRp1519
(dp1520
g7
Nsg8
Nsbag2
(g3
g4
(ltRp1521
(dp1522
g7
Nsg8
Nsbag2
(g3
g4
(ltRp1523
(dp1524
g7
Nsg8
Nsbag2
(g3
g4
(ltRp1525
(dp1526
g7
Nsg8
Nsbag2
(g3
g4
(ltRp1527
(dp1528
g7
Nsg8
Nsbag2
(g3
g4
(ltRp1529
(dp1530
g7
Nsg8
Nsbag2
(g3
g4
(ltRp1531
(dp1532
g7
Nsg8
Nsbag2
(g3
g4
(ltRp1533
(dp1534
g7
Nsg8
Nsbag2
(g3
g4
(ltRp1535
(dp1536
g7
Nsg8
Nsbag2
(g3
g4
(ltRp1537
(dp1538
g7
Nsg8
Nsbag2
(g3
g4
(ltRp1539
(dp1540
g7
Nsg8
Nsbag2
(g3
g4
(ltRp1541
(dp1542
g7
Nsg8
Nsbag2
(g3
g4
(ltRp1543
(dp1544
g7
Nsg8
Nsbag2
(g3
g4
(ltRp1545
(dp1546
g7
Nsg8
Nsbag2
(g3
g4
(ltRp1547
(dp1548
g7
Nsg8
Nsbag2
(g3
g4
(ltRp1549
(dp1550
g7
Nsg8
Nsbag2
(g3
g4
(ltRp1551
(dp1552
g7
Nsg8
Nsbag2
(g3
g4
(ltRp1553
(dp1554
g7
Nsg8
Nsbag2
(g3
g4
(ltRp1555
(dp1556
g7
Nsg8
Nsbag2
(g3
g4
(ltRp1557
(dp1558
g7
Nsg8
Nsbag2
(g3
g4
(ltRp1559
(dp1560
g7
Nsg8
Nsbag2
(g3
g4
(ltRp1561
(dp1562
g7
Nsg8
Nsbag2
(g3
g4
(ltRp1563
(dp1564
g7
Nsg8
Nsbag2
(g3
g4
(ltRp1565
(dp1566
g7
Nsg8
Nsbag2
(g3
g4
(ltRp1567
(dp1568
g7
Nsg8
Nsbag2
(g3
g4
(ltRp1569
(dp1570
g7
Nsg8
Nsbag2
(g3
g4
(ltRp1571
(dp1572
g7
Nsg8
Nsbag2
(g3
g4
(ltRp1573
(dp1574
g7
Nsg8
Nsbag2
(g3
g4
(ltRp1575
(dp1576
g7
Nsg8
Nsbag2
(g3
g4
(ltRp1577
(dp1578
g7
Nsg8
Nsbag2
(g3
g4
(ltRp1579
(dp1580
g7
Nsg8
Nsbag2
(g3
g4
(ltRp1581
(dp1582
g7
Nsg8
Nsbag2
(g3
g4
(ltRp1583
(dp1584
g7
Nsg8
Nsbag2
(g3
g4
(ltRp1585
(dp1586
g7
Nsg8
Nsbag2
(g3
g4
(ltRp1587
(dp1588
g7
Nsg8
Nsbag2
(g3
g4
(ltRp1589
(dp1590
g7
Nsg8
Nsbag2
(g3
g4
(ltRp1591
(dp1592
g7
Nsg8
Nsbag2
(g3
g4
(ltRp1593
(dp1594
g7
Nsg8
Nsbag2
(g3
g4
(ltRp1595
(dp1596
g7
Nsg8
Nsbag2
(g3
g4
(ltRp1597
(dp1598
g7
Nsg8
Nsbag2
(g3
g4
(ltRp1599
(dp1600
g7
Nsg8
Nsbag2
(g3
g4
(ltRp1601
(dp1602
g7
Nsg8
Nsbag2
(g3
g4
(ltRp1603
(dp1604
g7
Nsg8
Nsbag2
(g3
g4
(ltRp1605
(dp1606
g7
Nsg8
Nsbag2
(g3
g4
(ltRp1607
(dp1608
g7
Nsg8
Nsbag2
(g3
g4
(ltRp1609
(dp1610
g7
Nsg8
Nsbag2
(g3
g4
(ltRp1611
(dp1612
g7
Nsg8
Nsbag2
(g3
g4
(ltRp1613
(dp1614
g7
Nsg8
Nsbag2
(g3
g4
(ltRp1615
(dp1616
g7
Nsg8
Nsbag2
(g3
g4
(ltRp1617
(dp1618
g7
Nsg8
Nsbag2
(g3
g4
(ltRp1619
(dp1620
g7
Nsg8
Nsbag2
(g3
g4
(ltRp1621
(dp1622
g7
Nsg8
Nsbag2
(g3
g4
(ltRp1623
(dp1624
g7
Nsg8
Nsbag2
(g3
g4
(ltRp1625
(dp1626
g7
Nsg8
Nsbag2
(g3
g4
(ltRp1627
(dp1628
g7
Nsg8
Nsbag2
(g3
g4
(ltRp1629
(dp1630
g7
Nsg8
Nsbag2
(g3
g4
(ltRp1631
(dp1632
g7
Nsg8
Nsbag2
(g3
g4
(ltRp1633
(dp1634
g7
Nsg8
Nsbag2
(g3
g4
(ltRp1635
(dp1636
g7
Nsg8
Nsbag2
(g3
g4
(ltRp1637
(dp1638
g7
Nsg8
Nsbag2
(g3
g4
(ltRp1639
(dp1640
g7
Nsg8
Nsbag2
(g3
g4
(ltRp1641
(dp1642
g7
Nsg8
Nsbag2
(g3
g4
(ltRp1643
(dp1644
g7
Nsg8
Nsbag2
(g3
g4
(ltRp1645
(dp1646
g7
Nsg8
Nsbag2
(g3
g4
(ltRp1647
(dp1648
g7
Nsg8
Nsbag2
(g3
g4
(ltRp1649
(dp1650
g7
Nsg8
Nsbag2
(g3
g4
(ltRp1651
(dp1652
g7
Nsg8
Nsbag2
(g3
g4
(ltRp1653
(dp1654
g7
Nsg8
Nsbag2
(g3
g4
(ltRp1655
(dp1656
g7
Nsg8
Nsbag2
(g3
g4
(ltRp1657
(dp1658
g7
Nsg8
Nsbag2
(g3
g4
(ltRp1659
(dp1660
g7
Nsg8
Nsbag2
(g3
g4
(ltRp1661
(dp1662
g7
Nsg8
Nsbag2
(g3
g4
(ltRp1663
(dp1664
g7
Nsg8
Nsbag2
(g3
g4
(ltRp1665
(dp1666
g7
Nsg8
Nsbag2
(g3
g4
(ltRp1667
(dp1668
g7
Nsg8
Nsbag2
(g3
g4
(ltRp1669
(dp1670
g7
Nsg8
Nsbag2
(g3
g4
(ltRp1671
(dp1672
g7
Nsg8
Nsbag2
(g3
g4
(ltRp1673
(dp1674
g7
Nsg8
Nsbag2
(g3
g4
(ltRp1675
(dp1676
g7
Nsg8
Nsbag2
(g3
g4
(ltRp1677
(dp1678
g7
Nsg8
Nsbag2
(g3
g4
(ltRp1679
(dp1680
g7
Nsg8
Nsbag2
(g3
g4
(ltRp1681
(dp1682
g7
Nsg8
Nsbag2
(g3
g4
(ltRp1683
(dp1684
g7
Nsg8
Nsbag2
(g3
g4
(ltRp1685
(dp1686
g7
Nsg8
Nsbag2
(g3
g4
(ltRp1687
(dp1688
g7
Nsg8
Nsbag2
(g3
g4
(ltRp1689
(dp1690
g7
Nsg8
Nsbag2
(g3
g4
(ltRp1691
(dp1692
g7
Nsg8
Nsbag2
(g3
g4
(ltRp1693
(dp1694
g7
Nsg8
Nsbag2
(g3
g4
(ltRp1695
(dp1696
g7
Nsg8
Nsbag2
(g3
g4
(ltRp1697
(dp1698
g7
Nsg8
Nsbag2
(g3
g4
(ltRp1699
(dp1700
g7
Nsg8
Nsbag2
(g3
g4
(ltRp1701
(dp1702
g7
Nsg8
Nsbag2
(g3
g4
(ltRp1703
(dp1704
g7
Nsg8
Nsbag2
(g3
g4
(ltRp1705
(dp1706
g7
Nsg8
Nsbag2
(g3
g4
(ltRp1707
(dp1708
g7
Nsg8
Nsbag2
(g3
g4
(ltRp1709
(dp1710
g7
Nsg8
Nsbag2
(g3
g4
(ltRp1711
(dp1712
g7
Nsg8
Nsbag2
(g3
g4
(ltRp1713
(dp1714
g7
Nsg8
Nsbag2
(g3
g4
(ltRp1715
(dp1716
g7
Nsg8
Nsbag2
(g3
g4
(ltRp1717
(dp1718
g7
Nsg8
Nsbag2
(g3
g4
(ltRp1719
(dp1720
g7
Nsg8
Nsbag2
(g3
g4
(ltRp1721
(dp1722
g7
Nsg8
Nsbag2
(g3
g4
(ltRp1723
(dp1724
g7
Nsg8
Nsbag2
(g3
g4
(ltRp1725
(dp1726
g7
Nsg8
Nsbag2
(g3
g4
(ltRp1727
(dp1728
g7
Nsg8
Nsbag2
(g3
g4
(ltRp1729
(dp1730
g7
Nsg8
Nsbag2
(g3
g4
(ltRp1731
(dp1732
g7
Nsg8
Nsbag2
(g3
g4
(ltRp1733
(dp1734
g7
Nsg8
Nsbag2
(g3
g4
(ltRp1735
(dp1736
g7
Nsg8
Nsbag2
(g3
g4
(ltRp1737
(dp1738
g7
Nsg8
Nsbag2
(g3
g4
(ltRp1739
(dp1740
g7
Nsg8
Nsbag2
(g3
g4
(ltRp1741
(dp1742
g7
Nsg8
Nsbag2
(g3
g4
(ltRp1743
(dp1744
g7
Nsg8
Nsbag2
(g3
g4
(ltRp1745
(dp1746
g7
Nsg8
Nsbag2
(g3
g4
(ltRp1747
(dp1748
g7
Nsg8
Nsbag2
(g3
g4
(ltRp1749
(dp1750
g7
Nsg8
Nsbag2
(g3
g4
(ltRp1751
(dp1752
g7
Nsg8
Nsbag2
(g3
g4
(ltRp1753
(dp1754
g7
Nsg8
Nsbag2
(g3
g4
(ltRp1755
(dp1756
g7
Nsg8
Nsbag2
(g3
g4
(ltRp1757
(dp1758
g7
Nsg8
Nsbag2
(g3
g4
(ltRp1759
(dp1760
g7
Nsg8
Nsbag2
(g3
g4
(ltRp1761
(dp1762
g7
Nsg8
Nsbag2
(g3
g4
(ltRp1763
(dp1764
g7
Nsg8
Nsbag2
(g3
g4
(ltRp1765
(dp1766
g7
Nsg8
Nsbag2
(g3
g4
(ltRp1767
(dp1768
g7
Nsg8
Nsbag2
(g3
g4
(ltRp1769
(dp1770
g7
Nsg8
Nsbag2
(g3
g4
(ltRp1771
(dp1772
g7
Nsg8
Nsbag2
(g3
g4
(ltRp1773
(dp1774
g7
Nsg8
Nsbag2
(g3
g4
(ltRp1775
(dp1776
g7
Nsg8
Nsbag2
(g3
g4
(ltRp1777
(dp1778
g7
Nsg8
Nsbag2
(g3
g4
(ltRp1779
(dp1780
g7
Nsg8
Nsbag2
(g3
g4
(ltRp1781
(dp1782
g7
Nsg8
Nsbag2
(g3
g4
(ltRp1783
(dp1784
g7
Nsg8
Nsbag2
(g3
g4
(ltRp1785
(dp1786
g7
Nsg8
Nsbag2
(g3
g4
(ltRp1787
(dp1788
g7
Nsg8
Nsbag2
(g3
g4
(ltRp1789
(dp1790
g7
Nsg8
Nsbag2
(g3
g4
(ltRp1791
(dp1792
g7
Nsg8
Nsbag2
(g3
g4
(ltRp1793
(dp1794
g7
Nsg8
Nsbag2
(g3
g4
(ltRp1795
(dp1796
g7
Nsg8
Nsbag2
(g3
g4
(ltRp1797
(dp1798
g7
Nsg8
Nsbag2
(g3
g4
(ltRp1799
(dp1800
g7
Nsg8
Nsbag2
(g3
g4
(ltRp1801
(dp1802
g7
Nsg8
Nsbag2
(g3
g4
(ltRp1803
(dp1804
g7
Nsg8
Nsbag2
(g3
g4
(ltRp1805
(dp1806
g7
Nsg8
Nsbag2
(g3
g4
(ltRp1807
(dp1808
g7
Nsg8
Nsbag2
(g3
g4
(ltRp1809
(dp1810
g7
Nsg8
Nsbag2
(g3
g4
(ltRp1811
(dp1812
g7
Nsg8
Nsbag2
(g3
g4
(ltRp1813
(dp1814
g7
Nsg8
Nsbag2
(g3
g4
(ltRp1815
(dp1816
g7
Nsg8
Nsbag2
(g3
g4
(ltRp1817
(dp1818
g7
Nsg8
Nsbag2
(g3
g4
(ltRp1819
(dp1820
g7
Nsg8
Nsbag2
(g3
g4
(ltRp1821
(dp1822
g7
Nsg8
Nsbag2
(g3
g4
(ltRp1823
(dp1824
g7
Nsg8
Nsbag2
(g3
g4
(ltRp1825
(dp1826
g7
Nsg8
Nsbag2
(g3
g4
(ltRp1827
(dp1828
g7
Nsg8
Nsbag2
(g3
g4
(ltRp1829
(dp1830
g7
Nsg8
Nsbag2
(g3
g4
(ltRp1831
(dp1832
g7
Nsg8
Nsbag2
(g3
g4
(ltRp1833
(dp1834
g7
Nsg8
Nsbag2
(g3
g4
(ltRp1835
(dp1836
g7
Nsg8
Nsbag2
(g3
g4
(ltRp1837
(dp1838
g7
Nsg8
Nsbag2
(g3
g4
(ltRp1839
(dp1840
g7
Nsg8
Nsbag2
(g3
g4
(ltRp1841
(dp1842
g7
Nsg8
Nsbag2
(g3
g4
(ltRp1843
(dp1844
g7
Nsg8
Nsbag2
(g3
g4
(ltRp1845
(dp1846
g7
Nsg8
Nsbag2
(g3
g4
(ltRp1847
(dp1848
g7
Nsg8
Nsbag2
(g3
g4
(ltRp1849
(dp1850
g7
Nsg8
Nsbag2
(g3
g4
(ltRp1851
(dp1852
g7
Nsg8
Nsbag2
(g3
g4
(ltRp1853
(dp1854
g7
Nsg8
Nsbag2
(g3
g4
(ltRp1855
(dp1856
g7
Nsg8
Nsbag2
(g3
g4
(ltRp1857
(dp1858
g7
Nsg8
Nsbag2
(g3
g4
(ltRp1859
(dp1860
g7
Nsg8
Nsbag2
(g3
g4
(ltRp1861
(dp1862
g7
Nsg8
Nsbag2
(g3
g4
(ltRp1863
(dp1864
g7
Nsg8
Nsbag2
(g3
g4
(ltRp1865
(dp1866
g7
Nsg8
Nsbag2
(g3
g4
(ltRp1867
(dp1868
g7
Nsg8
Nsbag2
(g3
g4
(ltRp1869
(dp1870
g7
Nsg8
Nsbag2
(g3
g4
(ltRp1871
(dp1872
g7
Nsg8
Nsbag2
(g3
g4
(ltRp1873
(dp1874
g7
Nsg8
Nsbag2
(g3
g4
(ltRp1875
(dp1876
g7
Nsg8
Nsbag2
(g3
g4
(ltRp1877
(dp1878
g7
Nsg8
Nsbag2
(g3
g4
(ltRp1879
(dp1880
g7
Nsg8
Nsbag2
(g3
g4
(ltRp1881
(dp1882
g7
Nsg8
Nsbag2
(g3
g4
(ltRp1883
(dp1884
g7
Nsg8
Nsbag2
(g3
g4
(ltRp1885
(dp1886
g7
Nsg8
Nsbag2
(g3
g4
(ltRp1887
(dp1888
g7
Nsg8
Nsbag2
(g3
g4
(ltRp1889
(dp1890
g7
Nsg8
Nsbag2
(g3
g4
(ltRp1891
(dp1892
g7
Nsg8
Nsbag2
(g3
g4
(ltRp1893
(dp1894
g7
Nsg8
Nsbag2
(g3
g4
(ltRp1895
(dp1896
g7
Nsg8
Nsbag2
(g3
g4
(ltRp1897
(dp1898
g7
Nsg8
Nsbag2
(g3
g4
(ltRp1899
(dp1900
g7
Nsg8
Nsbag2
(g3
g4
(ltRp1901
(dp1902
g7
Nsg8
Nsbag2
(g3
g4
(ltRp1903
(dp1904
g7
Nsg8
Nsbag2
(g3
g4
(ltRp1905
(dp1906
g7
Nsg8
Nsbag2
(g3
g4
(ltRp1907
(dp1908
g7
Nsg8
Nsbag2
(g3
g4
(ltRp1909
(dp1910
g7
Nsg8
Nsbag2
(g3
g4
(ltRp1911
(dp1912
g7
Nsg8
Nsbag2
(g3
g4
(ltRp1913
(dp1914
g7
Nsg8
Nsbag2
(g3
g4
(ltRp1915
(dp1916
g7
Nsg8
Nsbag2
(g3
g4
(ltRp1917
(dp1918
g7
Nsg8
Nsbag2
(g3
g4
(ltRp1919
(dp1920
g7
Nsg8
Nsbag2
(g3
g4
(ltRp1921
(dp1922
g7
Nsg8
Nsbag2
(g3
g4
(ltRp1923
(dp1924
g7
Nsg8
Nsbag2
(g3
g4
(ltRp1925
(dp1926
g7
Nsg8
Nsbag2
(g3
g4
(ltRp1927
(dp1928
g7
Nsg8
Nsbag2
(g3
g4
(ltRp1929
(dp1930
g7
Nsg8
Nsbag2
(g3
g4
(ltRp1931
(dp1932
g7
Nsg8
Nsbag2
(g3
g4
(ltRp1933
(dp1934
g7
Nsg8
Nsbag2
(g3
g4
(ltRp1935
(dp1936
g7
Nsg8
Nsbag2
(g3
g4
(ltRp1937
(dp1938
g7
Nsg8
Nsbag2
(g3
g4
(ltRp1939
(dp1940
g7
Nsg8
Nsbag2
(g3
g4
(ltRp1941
(dp1942
g7
Nsg8
Nsbag2
(g3
g4
(ltRp1943
(dp1944
g7
Nsg8
Nsbag2
(g3
g4
(ltRp1945
(dp1946
g7
Nsg8
Nsbag2
(g3
g4
(ltRp1947
(dp1948
g7
Nsg8
Nsbag2
(g3
g4
(ltRp1949
(dp1950
g7
Nsg8
Nsbag2
(g3
g4
(ltRp1951
(dp1952
g7
Nsg8
Nsbag2
(g3
g4
(ltRp1953
(dp1954
g7
Nsg8
Nsbag2
(g3
g4
(ltRp1955
(dp1956
g7
Nsg8
Nsbag2
(g3
g4
(ltRp1957
(dp1958
g7
Nsg8
Nsbag2
(g3
g4
(ltRp1959
(dp1960
g7
Nsg8
Nsbag2
(g3
g4
(ltRp1961
(dp1962
g7
Nsg8
Nsbag2
(g3
g4
(ltRp1963
(dp1964
g7
Nsg8
Nsbag2
(g3
g4
(ltRp1965
(dp1966
g7
Nsg8
Nsbag2
(g3
g4
(ltRp1967
(dp1968
g7
Nsg8
Nsbag2
(g3
g4
(ltRp1969
(dp1970
g7
Nsg8
Nsbag2
(g3
g4
(ltRp1971
(dp1972
g7
Nsg8
Nsbag2
(g3
g4
(ltRp1973
(dp1974
g7
Nsg8
Nsbag2
(g3
g4
(ltRp1975
(dp1976
g7
Nsg8
Nsbag2
(g3
g4
(ltRp1977
(dp1978
g7
Nsg8
Nsbag2
(g3
g4
(ltRp1979
(dp1980
g7
Nsg8
Nsbag2
(g3
g4
(ltRp1981
(dp1982
g7
Nsg8
Nsbag2
(g3
g4
(ltRp1983
(dp1984
g7
Nsg8
Nsbag2
(g3
g4
(ltRp1985
(dp1986
g7
Nsg8
Nsbag2
(g3
g4
(ltRp1987
(dp1988
g7
Nsg8
Nsbag2
(g3
g4
(ltRp1989
(dp1990
g7
Nsg8
Nsbag2
(g3
g4
(ltRp1991
(dp1992
g7
Nsg8
Nsbag2
(g3
g4
(ltRp1993
(dp1994
g7
Nsg8
Nsbag2
(g3
g4
(ltRp1995
(dp1996
g7
Nsg8
Nsbag2
(g3
g4
(ltRp1997
(dp1998
g7
Nsg8
Nsbag2
(g3
g4
(ltRp1999
(dp2000
g7
Nsg8
Nsbag2
(g3
g4
(ltRp2001
(dp2002
g7
Nsg8
Nsbag2
(g3
g4
(ltRp2003
(dp2004
g7
Nsg8
Nsbag2
(g3
g4
(ltRp2005
(dp2006
g7
Nsg8
Nsbag2
(g3
g4
(ltRp2007
(dp2008
g7
Nsg8
Nsbag2
(g3
g4
(ltRp2009
(dp2010
g7
Nsg8
Nsbag2
(g3
g4
(ltRp2011
(dp2012
g7
Nsg8
Nsbag2
(g3
g4
(ltRp2013
(dp2014
g7
Nsg8
Nsbag2
(g3
g4
(ltRp2015
(dp2016
g7
Nsg8
Nsbag2
(g3
g4
(ltRp2017
(dp2018
g7
Nsg8
Nsbag2
(g3
g4
(ltRp2019
(dp2020
g7
Nsg8
Nsbag2
(g3
g4
(ltRp2021
(dp2022
g7
Nsg8
Nsbag2
(g3
g4
(ltRp2023
(dp2024
g7
Nsg8
Nsbag2
(g3
g4
(ltRp2025
(dp2026
g7
Nsg8
Nsbag2
(g3
g4
(ltRp2027
(dp2028
g7
Nsg8
Nsbag2
(g3
g4
(ltRp2029
(dp2030
g7
Nsg8
Nsbag2
(g3
g4
(ltRp2031
(dp2032
g7
Nsg8
Nsbag2
(g3
g4
(ltRp2033
(dp2034
g7
Nsg8
Nsbag2
(g3
g4
(ltRp2035
(dp2036
g7
Nsg8
Nsbag2
(g3
g4
(ltRp2037
(dp2038
g7
Nsg8
Nsbag2
(g3
g4
(ltRp2039
(dp2040
g7
Nsg8
Nsbag2
(g3
g4
(ltRp2041
(dp2042
g7
Nsg8
Nsbag2
(g3
g4
(ltRp2043
(dp2044
g7
Nsg8
Nsbag2
(g3
g4
(ltRp2045
(dp2046
g7
Nsg8
Nsbag2
(g3
g4
(ltRp2047
(dp2048
g7
Nsg8
Nsbag2
(g3
g4
(ltRp2049
(dp2050
g7
Nsg8
Nsbag2
(g3
g4
(ltRp2051
(dp2052
g7
Nsg8
Nsbag2
(g3
g4
(ltRp2053
(dp2054
g7
Nsg8
Nsbag2
(g3
g4
(ltRp2055
(dp2056
g7
Nsg8
Nsbag2
(g3
g4
(ltRp2057
(dp2058
g7
Nsg8
Nsbag2
(g3
g4
(ltRp2059
(dp2060
g7
Nsg8
Nsbag2
(g3
g4
(ltRp2061
(dp2062
g7
Nsg8
Nsbag2
(g3
g4
(ltRp2063
(dp2064
g7
Nsg8
Nsbag2
(g3
g4
(ltRp2065
(dp2066
g7
Nsg8
Nsbag2
(g3
g4
(ltRp2067
(dp2068
g7
Nsg8
Nsbag2
(g3
g4
(ltRp2069
(dp2070
g7
Nsg8
Nsbag2
(g3
g4
(ltRp2071
(dp2072
g7
Nsg8
Nsbag2
(g3
g4
(ltRp2073
(dp2074
g7
Nsg8
Nsbag2
(g3
g4
(ltRp2075
(dp2076
g7
Nsg8
Nsbag2
(g3
g4
(ltRp2077
(dp2078
g7
Nsg8
Nsbag2
(g3
g4
(ltRp2079
(dp2080
g7
Nsg8
Nsbag2
(g3
g4
(ltRp2081
(dp2082
g7
Nsg8
Nsbag2
(g3
g4
(ltRp2083
(dp2084
g7
Nsg8
Nsbag2
(g3
g4
(ltRp2085
(dp2086
g7
Nsg8
Nsbag2
(g3
g4
(ltRp2087
(dp2088
g7
Nsg8
Nsbag2
(g3
g4
(ltRp2089
(dp2090
g7
Nsg8
Nsbag2
(g3
g4
(ltRp2091
(dp2092
g7
Nsg8
Nsbag2
(g3
g4
(ltRp2093
(dp2094
g7
Nsg8
Nsbag2
(g3
g4
(ltRp2095
(dp2096
g7
Nsg8
Nsbag2
(g3
g4
(ltRp2097
(dp2098
g7
Nsg8
Nsbag2
(g3
g4
(ltRp2099
(dp2100
g7
Nsg8
Nsbag2
(g3
g4
(ltRp2101
(dp2102
g7
Nsg8
Nsbag2
(g3
g4
(ltRp2103
(dp2104
g7
Nsg8
Nsbag2
(g3
g4
(ltRp2105
(dp2106
g7
Nsg8
Nsbag2
(g3
g4
(ltRp2107
(dp2108
g7
Nsg8
Nsbag2
(g3
g4
(ltRp2109
(dp2110
g7
Nsg8
Nsbag2
(g3
g4
(ltRp2111
(dp2112
g7
Nsg8
Nsbag2
(g3
g4
(ltRp2113
(dp2114
g7
Nsg8
Nsbag2
(g3
g4
(ltRp2115
(dp2116
g7
Nsg8
Nsbag2
(g3
g4
(ltRp2117
(dp2118
g7
Nsg8
Nsbag2
(g3
g4
(ltRp2119
(dp2120
g7
Nsg8
Nsbag2
(g3
g4
(ltRp2121
(dp2122
g7
Nsg8
Nsbag2
(g3
g4
(ltRp2123
(dp2124
g7
Nsg8
Nsbag2
(g3
g4
(ltRp2125
(dp2126
g7
Nsg8
Nsbag2
(g3
g4
(ltRp2127
(dp2128
g7
Nsg8
Nsbag2
(g3
g4
(ltRp2129
(dp2130
g7
Nsg8
Nsbag2
(g3
g4
(ltRp2131
(dp2132
g7
Nsg8
Nsbag2
(g3
g4
(ltRp2133
(dp2134
g7
Nsg8
Nsbag2
(g3
g4
(ltRp2135
(dp2136
g7
Nsg8
Nsbag2
(g3
g4
(ltRp2137
(dp2138
g7
Nsg8
Nsbag2
(g3
g4
(ltRp2139
(dp2140
g7
Nsg8
Nsbag2
(g3
g4
(ltRp2141
(dp2142
g7
Nsg8
Nsbag2
(g3
g4
(ltRp2143
(dp2144
g7
Nsg8
Nsbag2
(g3
g4
(ltRp2145
(dp2146
g7
Nsg8
Nsbag2
(g3
g4
(ltRp2147
(dp2148
g7
Nsg8
Nsbag2
(g3
g4
(ltRp2149
(dp2150
g7
Nsg8
Nsbag2
(g3
g4
(ltRp2151
(dp2152
g7
Nsg8
Nsbag2
(g3
g4
(ltRp2153
(dp2154
g7
Nsg8
Nsbag2
(g3
g4
(ltRp2155
(dp2156
g7
Nsg8
Nsbag2
(g3
g4
(ltRp2157
(dp2158
g7
Nsg8
Nsbag2
(g3
g4
(ltRp2159
(dp2160
g7
Nsg8
Nsbag2
(g3
g4
(ltRp2161
(dp2162
g7
Nsg8
Nsbag2
(g3
g4
(ltRp2163
(dp2164
g7
Nsg8
Nsbag2
(g3
g4
(ltRp2165
(dp2166
g7
Nsg8
Nsbag2
(g3
g4
(ltRp2167
(dp2168
g7
Nsg8
Nsbag2
(g3
g4
(ltRp2169
(dp2170
g7
Nsg8
Nsbag2
(g3
g4
(ltRp2171
(dp2172
g7
Nsg8
Nsbag2
(g3
g4
(ltRp2173
(dp2174
g7
Nsg8
Nsbag2
(g3
g4
(ltRp2175
(dp2176
g7
Nsg8
Nsbag2
(g3
g4
(ltRp2177
(dp2178
g7
Nsg8
Nsbag2
(g3
g4
(ltRp2179
(dp2180
g7
Nsg8
Nsbag2
(g3
g4
(ltRp2181
(dp2182
g7
Nsg8
Nsbag2
(g3
g4
(ltRp2183
(dp2184
g7
Nsg8
Nsbag2
(g3
g4
(ltRp2185
(dp2186
g7
Nsg8
Nsbag2
(g3
g4
(ltRp2187
(dp2188
g7
Nsg8
Nsbag2
(g3
g4
(ltRp2189
(dp2190
g7
Nsg8
Nsbag2
(g3
g4
(ltRp2191
(dp2192
g7
Nsg8
Nsbag2
(g3
g4
(ltRp2193
(dp2194
g7
Nsg8
Nsbag2
(g3
g4
(ltRp2195
(dp2196
g7
Nsg8
Nsbag2
(g3
g4
(ltRp2197
(dp2198
g7
Nsg8
Nsbag2
(g3
g4
(ltRp2199
(dp2200
g7
Nsg8
Nsbag2
(g3
g4
(ltRp2201
(dp2202
g7
Nsg8
Nsbag2
(g3
g4
(ltRp2203
(dp2204
g7
Nsg8
Nsbag2
(g3
g4
(ltRp2205
(dp2206
g7
Nsg8
Nsbag2
(g3
g4
(ltRp2207
(dp2208
g7
Nsg8
Nsbag2
(g3
g4
(ltRp2209
(dp2210
g7
Nsg8
Nsbag2
(g3
g4
(ltRp2211
(dp2212
g7
Nsg8
Nsbag2
(g3
g4
(ltRp2213
(dp2214
g7
Nsg8
Nsbag2
(g3
g4
(ltRp2215
(dp2216
g7
Nsg8
Nsbag2
(g3
g4
(ltRp2217
(dp2218
g7
Nsg8
Nsbag2
(g3
g4
(ltRp2219
(dp2220
g7
Nsg8
Nsbag2
(g3
g4
(ltRp2221
(dp2222
g7
Nsg8
Nsbag2
(g3
g4
(ltRp2223
(dp2224
g7
Nsg8
Nsbag2
(g3
g4
(ltRp2225
(dp2226
g7
Nsg8
Nsbag2
(g3
g4
(ltRp2227
(dp2228
g7
Nsg8
Nsbag2
(g3
g4
(ltRp2229
(dp2230
g7
Nsg8
Nsbag2
(g3
g4
(ltRp2231
(dp2232
g7
Nsg8
Nsbag2
(g3
g4
(ltRp2233
(dp2234
g7
Nsg8
Nsbag2
(g3
g4
(ltRp2235
(dp2236
g7
Nsg8
Nsbag2
(g3
g4
(ltRp2237
(dp2238
g7
Nsg8
Nsbag2
(g3
g4
(ltRp2239
(dp2240
g7
Nsg8
Nsbag2
(g3
g4
(ltRp2241
(dp2242
g7
Nsg8
Nsbag2
(g3
g4
(ltRp2243
(dp2244
g7
Nsg8
Nsbag2
(g3
g4
(ltRp2245
(dp2246
g7
Nsg8
Nsbag2
(g3
g4
(ltRp2247
(dp2248
g7
Nsg8
Nsbag2
(g3
g4
(ltRp2249
(dp2250
g7
Nsg8
Nsbag2
(g3
g4
(ltRp2251
(dp2252
g7
Nsg8
Nsbag2
(g3
g4
(ltRp2253
(dp2254
g7
Nsg8
Nsbag2
(g3
g4
(ltRp2255
(dp2256
g7
Nsg8
Nsbag2
(g3
g4
(ltRp2257
(dp2258
g7
Nsg8
Nsbag2
(g3
g4
(ltRp2259
(dp2260
g7
Nsg8
Nsbag2
(g3
g4
(ltRp2261
(dp2262
g7
Nsg8
Nsbag2
(g3
g4
(ltRp2263
(dp2264
g7
Nsg8
Nsbag2
(g3
g4
(ltRp2265
(dp2266
g7
Nsg8
Nsbag2
(g3
g4
(ltRp2267
(dp2268
g7
Nsg8
Nsbag2
(g3
g4
(ltRp2269
(dp2270
g7
Nsg8
Nsbag2
(g3
g4
(ltRp2271
(dp2272
g7
Nsg8
Nsbag2
(g3
g4
(ltRp2273
(dp2274
g7
Nsg8
Nsbag2
(g3
g4
(ltRp2275
(dp2276
g7
Nsg8
Nsbag2
(g3
g4
(ltRp2277
(dp2278
g7
Nsg8
Nsbag2
(g3
g4
(ltRp2279
(dp2280
g7
Nsg8
Nsbag2
(g3
g4
(ltRp2281
(dp2282
g7
Nsg8
Nsbag2
(g3
g4
(ltRp2283
(dp2284
g7
Nsg8
Nsbag2
(g3
g4
(ltRp2285
(dp2286
g7
Nsg8
Nsbag2
(g3
g4
(ltRp2287
(dp2288
g7
Nsg8
Nsbag2
(g3
g4
(ltRp2289
(dp2290
g7
Nsg8
Nsbag2
(g3
g4
(ltRp2291
(dp2292
g7
Nsg8
Nsbag2
(g3
g4
(ltRp2293
(dp2294
g7
Nsg8
Nsbag2
(g3
g4
(ltRp2295
(dp2296
g7
Nsg8
Nsbag2
(g3
g4
(ltRp2297
(dp2298
g7
Nsg8
Nsbag2
(g3
g4
(ltRp2299
(dp2300
g7
Nsg8
Nsbag2
(g3
g4
(ltRp2301
(dp2302
g7
Nsg8
Nsbag2
(g3
g4
(ltRp2303
(dp2304
g7
Nsg8
Nsbag2
(g3
g4
(ltRp2305
(dp2306
g7
Nsg8
Nsbag2
(g3
g4
(ltRp2307
(dp2308
g7
Nsg8
Nsbag2
(g3
g4
(ltRp2309
(dp2310
g7
Nsg8
Nsbag2
(g3
g4
(ltRp2311
(dp2312
g7
Nsg8
Nsbag2
(g3
g4
(ltRp2313
(dp2314
g7
Nsg8
Nsbag2
(g3
g4
(ltRp2315
(dp2316
g7
Nsg8
Nsbag2
(g3
g4
(ltRp2317
(dp2318
g7
Nsg8
Nsbag2
(g3
g4
(ltRp2319
(dp2320
g7
Nsg8
Nsbag2
(g3
g4
(ltRp2321
(dp2322
g7
Nsg8
Nsbag2
(g3
g4
(ltRp2323
(dp2324
g7
Nsg8
Nsbag2
(g3
g4
(ltRp2325
(dp2326
g7
Nsg8
Nsbag2
(g3
g4
(ltRp2327
(dp2328
g7
Nsg8
Nsbag2
(g3
g4
(ltRp2329
(dp2330
g7
Nsg8
Nsbag2
(g3
g4
(ltRp2331
(dp2332
g7
Nsg8
Nsbag2
(g3
g4
(ltRp2333
(dp2334
g7
Nsg8
Nsbag2
(g3
g4
(ltRp2335
(dp2336
g7
Nsg8
Nsbag2
(g3
g4
(ltRp2337
(dp2338
g7
Nsg8
Nsbag2
(g3
g4
(ltRp2339
(dp2340
g7
Nsg8
Nsbag2
(g3
g4
(ltRp2341
(dp2342
g7
Nsg8
Nsbag2
(g3
g4
(ltRp2343
(dp2344
g7
Nsg8
Nsbag2
(g3
g4
(ltRp2345
(dp2346
g7
Nsg8
Nsbag2
(g3
g4
(ltRp2347
(dp2348
g7
Nsg8
Nsbag2
(g3
g4
(ltRp2349
(dp2350
g7
Nsg8
Nsbag2
(g3
g4
(ltRp2351
(dp2352
g7
Nsg8
Nsbag2
(g3
g4
(ltRp2353
(dp2354
g7
Nsg8
Nsbag2
(g3
g4
(ltRp2355
(dp2356
g7
Nsg8
Nsbag2
(g3
g4
(ltRp2357
(dp2358
g7
Nsg8
Nsbag2
(g3
g4
(ltRp2359
(dp2360
g7
Nsg8
Nsbag2
(g3
g4
(ltRp2361
(dp2362
g7
Nsg8
Nsbag2
(g3
g4
(ltRp2363
(dp2364
g7
Nsg8
Nsbag2
(g3
g4
(ltRp2365
(dp2366
g7
Nsg8
Nsbag2
(g3
g4
(ltRp2367
(dp2368
g7
Nsg8
Nsbag2
(g3
g4
(ltRp2369
(dp2370
g7
Nsg8
Nsbag2
(g3
g4
(ltRp2371
(dp2372
g7
Nsg8
Nsbag2
(g3
g4
(ltRp2373
(dp2374
g7
Nsg8
Nsbag2
(g3
g4
(ltRp2375
(dp2376
g7
Nsg8
Nsbag2
(g3
g4
(ltRp2377
(dp2378
g7
Nsg8
Nsbag2
(g3
g4
(ltRp2379
(dp2380
g7
Nsg8
Nsbag2
(g3
g4
(ltRp2381
(dp2382
g7
Nsg8
Nsbag2
(g3
g4
(ltRp2383
(dp2384
g7
Nsg8
Nsbag2
(g3
g4
(ltRp2385
(dp2386
g7
Nsg8
Nsbag2
(g3
g4
(ltRp2387
(dp2388
g7
Nsg8
Nsbag2
(g3
g4
(ltRp2389
(dp2390
g7
Nsg8
Nsbag2
(g3
g4
(ltRp2391
(dp2392
g7
Nsg8
Nsbag2
(g3
g4
(ltRp2393
(dp2394
g7
Nsg8
Nsbag2
(g3
g4
(ltRp2395
(dp2396
g7
Nsg8
Nsbag2
(g3
g4
(ltRp2397
(dp2398
g7
Nsg8
Nsbag2
(g3
g4
(ltRp2399
(dp2400
g7
Nsg8
Nsbag2
(g3
g4
(ltRp2401
(dp2402
g7
Nsg8
Nsbag2
(g3
g4
(ltRp2403
(dp2404
g7
Nsg8
Nsbag2
(g3
g4
(ltRp2405
(dp2406
g7
Nsg8
Nsbag2
(g3
g4
(ltRp2407
(dp2408
g7
Nsg8
Nsbag2
(g3
g4
(ltRp2409
(dp2410
g7
Nsg8
Nsbag2
(g3
g4
(ltRp2411
(dp2412
g7
Nsg8
Nsbag2
(g3
g4
(ltRp2413
(dp2414
g7
Nsg8
Nsbag2
(g3
g4
(ltRp2415
(dp2416
g7
Nsg8
Nsbag2
(g3
g4
(ltRp2417
(dp2418
g7
Nsg8
Nsbag2
(g3
g4
(ltRp2419
(dp2420
g7
Nsg8
Nsbag2
(g3
g4
(ltRp2421
(dp2422
g7
Nsg8
Nsbag2
(g3
g4
(ltRp2423
(dp2424
g7
Nsg8
Nsbag2
(g3
g4
(ltRp2425
(dp2426
g7
Nsg8
Nsbag2
(g3
g4
(ltRp2427
(dp2428
g7
Nsg8
Nsbag2
(g3
g4
(ltRp2429
(dp2430
g7
Nsg8
Nsbag2
(g3
g4
(ltRp2431
(dp2432
g7
Nsg8
Nsbag2
(g3
g4
(ltRp2433
(dp2434
g7
Nsg8
Nsbag2
(g3
g4
(ltRp2435
(dp2436
g7
Nsg8
Nsbag2
(g3
g4
(ltRp2437
(dp2438
g7
Nsg8
Nsbag2
(g3
g4
(ltRp2439
(dp2440
g7
Nsg8
Nsbag2
(g3
g4
(ltRp2441
(dp2442
g7
Nsg8
Nsbag2
(g3
g4
(ltRp2443
(dp2444
g7
Nsg8
Nsbag2
(g3
g4
(ltRp2445
(dp2446
g7
Nsg8
Nsbag2
(g3
g4
(ltRp2447
(dp2448
g7
Nsg8
Nsbag2
(g3
g4
(ltRp2449
(dp2450
g7
Nsg8
Nsbag2
(g3
g4
(ltRp2451
(dp2452
g7
Nsg8
Nsbag2
(g3
g4
(ltRp2453
(dp2454
g7
Nsg8
Nsbag2
(g3
g4
(ltRp2455
(dp2456
g7
Nsg8
Nsbag2
(g3
g4
(ltRp2457
(dp2458
g7
Nsg8
Nsbag2
(g3
g4
(ltRp2459
(dp2460
g7
Nsg8
Nsbag2
(g3
g4
(ltRp2461
(dp2462
g7
Nsg8
Nsbag2
(g3
g4
(ltRp2463
(dp2464
g7
Nsg8
Nsbag2
(g3
g4
(ltRp2465
(dp2466
g7
Nsg8
Nsbag2
(g3
g4
(ltRp2467
(dp2468
g7
Nsg8
Nsbag2
(g3
g4
(ltRp2469
(dp2470
g7
Nsg8
Nsbag2
(g3
g4
(ltRp2471
(dp2472
g7
Nsg8
Nsbag2
(g3
g4
(ltRp2473
(dp2474
g7
Nsg8
Nsbag2
(g3
g4
(ltRp2475
(dp2476
g7
Nsg8
Nsbag2
(g3
g4
(ltRp2477
(dp2478
g7
Nsg8
Nsbag2
(g3
g4
(ltRp2479
(dp2480
g7
Nsg8
Nsbag2
(g3
g4
(ltRp2481
(dp2482
g7
Nsg8
Nsbag2
(g3
g4
(ltRp2483
(dp2484
g7
Nsg8
Nsbag2
(g3
g4
(ltRp2485
(dp2486
g7
Nsg8
Nsbag2
(g3
g4
(ltRp2487
(dp2488
g7
Nsg8
Nsbag2
(g3
g4
(ltRp2489
(dp2490
g7
Nsg8
Nsbag2
(g3
g4
(ltRp2491
(dp2492
g7
Nsg8
Nsbag2
(g3
g4
(ltRp2493
(dp2494
g7
Nsg8
Nsbag2
(g3
g4
(ltRp2495
(dp2496
g7
Nsg8
Nsbag2
(g3
g4
(ltRp2497
(dp2498
g7
Nsg8
Nsbag2
(g3
g4
(ltRp2499
(dp2500
g7
Nsg8
Nsbag2
(g3
g4
(ltRp2501
(dp2502
g7
Nsg8
Nsbag2
(g3
g4
(ltRp2503
(dp2504
g7
Nsg8
Nsbag2
(g3
g4
(ltRp2505
(dp2506
g7
Nsg8
Nsbag2
(g3
g4
(ltRp2507
(dp2508
g7
Nsg8
Nsbag2
(g3
g4
(ltRp2509
(dp2510
g7
Nsg8
Nsbag2
(g3
g4
(ltRp2511
(dp2512
g7
Nsg8
Nsbag2
(g3
g4
(ltRp2513
(dp2514
g7
Nsg8
Nsbag2
(g3
g4
(ltRp2515
(dp2516
g7
Nsg8
Nsbag2
(g3
g4
(ltRp2517
(dp2518
g7
Nsg8
Nsbag2
(g3
g4
(ltRp2519
(dp2520
g7
Nsg8
Nsbag2
(g3
g4
(ltRp2521
(dp2522
g7
Nsg8
Nsbag2
(g3
g4
(ltRp2523
(dp2524
g7
Nsg8
Nsbag2
(g3
g4
(ltRp2525
(dp2526
g7
Nsg8
Nsbag2
(g3
g4
(ltRp2527
(dp2528
g7
Nsg8
Nsbag2
(g3
g4
(ltRp2529
(dp2530
g7
Nsg8
Nsbag2
(g3
g4
(ltRp2531
(dp2532
g7
Nsg8
Nsbag2
(g3
g4
(ltRp2533
(dp2534
g7
Nsg8
Nsbag2
(g3
g4
(ltRp2535
(dp2536
g7
Nsg8
Nsbag2
(g3
g4
(ltRp2537
(dp2538
g7
Nsg8
Nsbag2
(g3
g4
(ltRp2539
(dp2540
g7
Nsg8
Nsbag2
(g3
g4
(ltRp2541
(dp2542
g7
Nsg8
Nsbag2
(g3
g4
(ltRp2543
(dp2544
g7
Nsg8
Nsbag2
(g3
g4
(ltRp2545
(dp2546
g7
Nsg8
Nsbag2
(g3
g4
(ltRp2547
(dp2548
g7
Nsg8
Nsbag2
(g3
g4
(ltRp2549
(dp2550
g7
Nsg8
Nsbag2
(g3
g4
(ltRp2551
(dp2552
g7
Nsg8
Nsbag2
(g3
g4
(ltRp2553
(dp2554
g7
Nsg8
Nsbag2
(g3
g4
(ltRp2555
(dp2556
g7
Nsg8
Nsbag2
(g3
g4
(ltRp2557
(dp2558
g7
Nsg8
Nsbag2
(g3
g4
(ltRp2559
(dp2560
g7
Nsg8
Nsbag2
(g3
g4
(ltRp2561
(dp2562
g7
Nsg8
Nsbag2
(g3
g4
(ltRp2563
(dp2564
g7
Nsg8
Nsbag2
(g3
g4
(ltRp2565
(dp2566
g7
Nsg8
Nsbag2
(g3
g4
(ltRp2567
(dp2568
g7
Nsg8
Nsbag2
(g3
g4
(ltRp2569
(dp2570
g7
Nsg8
Nsbag2
(g3
g4
(ltRp2571
(dp2572
g7
Nsg8
Nsbag2
(g3
g4
(ltRp2573
(dp2574
g7
Nsg8
Nsbag2
(g3
g4
(ltRp2575
(dp2576
g7
Nsg8
Nsbag2
(g3
g4
(ltRp2577
(dp2578
g7
Nsg8
Nsbag2
(g3
g4
(ltRp2579
(dp2580
g7
Nsg8
Nsbag2
(g3
g4
(ltRp2581
(dp2582
g7
Nsg8
Nsbag2
(g3
g4
(ltRp2583
(dp2584
g7
Nsg8
Nsbag2
(g3
g4
(ltRp2585
(dp2586
g7
Nsg8
Nsbag2
(g3
g4
(ltRp2587
(dp2588
g7
Nsg8
Nsbag2
(g3
g4
(ltRp2589
(dp2590
g7
Nsg8
Nsbag2
(g3
g4
(ltRp2591
(dp2592
g7
Nsg8
Nsbag2
(g3
g4
(ltRp2593
(dp2594
g7
Nsg8
Nsbag2
(g3
g4
(ltRp2595
(dp2596
g7
Nsg8
Nsbag2
(g3
g4
(ltRp2597
(dp2598
g7
Nsg8
Nsbag2
(g3
g4
(ltRp2599
(dp2600
g7
Nsg8
Nsbag2
(g3
g4
(ltRp2601
(dp2602
g7
Nsg8
Nsbag2
(g3
g4
(ltRp2603
(dp2604
g7
Nsg8
Nsbag2
(g3
g4
(ltRp2605
(dp2606
g7
Nsg8
Nsbag2
(g3
g4
(ltRp2607
(dp2608
g7
Nsg8
Nsbag2
(g3
g4
(ltRp2609
(dp2610
g7
Nsg8
Nsbag2
(g3
g4
(ltRp2611
(dp2612
g7
Nsg8
Nsbag2
(g3
g4
(ltRp2613
(dp2614
g7
Nsg8
Nsbag2
(g3
g4
(ltRp2615
(dp2616
g7
Nsg8
Nsbag2
(g3
g4
(ltRp2617
(dp2618
g7
Nsg8
Nsbag2
(g3
g4
(ltRp2619
(dp2620
g7
Nsg8
Nsbag2
(g3
g4
(ltRp2621
(dp2622
g7
Nsg8
Nsbag2
(g3
g4
(ltRp2623
(dp2624
g7
Nsg8
Nsbag2
(g3
g4
(ltRp2625
(dp2626
g7
Nsg8
Nsbag2
(g3
g4
(ltRp2627
(dp2628
g7
Nsg8
Nsbag2
(g3
g4
(ltRp2629
(dp2630
g7
Nsg8
Nsbag2
(g3
g4
(ltRp2631
(dp2632
g7
Nsg8
Nsbag2
(g3
g4
(ltRp2633
(dp2634
g7
Nsg8
Nsbag2
(g3
g4
(ltRp2635
(dp2636
g7
Nsg8
Nsbag2
(g3
g4
(ltRp2637
(dp2638
g7
Nsg8
Nsbag2
(g3
g4
(ltRp2639
(dp2640
g7
Nsg8
Nsbag2
(g3
g4
(ltRp2641
(dp2642
g7
Nsg8
Nsbag2
(g3
g4
(ltRp2643
(dp2644
g7
Nsg8
Nsbag2
(g3
g4
(ltRp2645
(dp2646
g7
Nsg8
Nsbag2
(g3
g4
(ltRp2647
(dp2648
g7
Nsg8
Nsbag2
(g3
g4
(ltRp2649
(dp2650
g7
Nsg8
Nsbag2
(g3
g4
(ltRp2651
(dp2652
g7
Nsg8
Nsbag2
(g3
g4
(ltRp2653
(dp2654
g7
Nsg8
Nsbag2
(g3
g4
(ltRp2655
(dp2656
g7
Nsg8
Nsbag2
(g3
g4
(ltRp2657
(dp2658
g7
Nsg8
Nsbag2
(g3
g4
(ltRp2659
(dp2660
g7
Nsg8
Nsbag2
(g3
g4
(ltRp2661
(dp2662
g7
Nsg8
Nsbag2
(g3
g4
(ltRp2663
(dp2664
g7
Nsg8
Nsbag2
(g3
g4
(ltRp2665
(dp2666
g7
Nsg8
Nsbag2
(g3
g4
(ltRp2667
(dp2668
g7
Nsg8
Nsbag2
(g3
g4
(ltRp2669
(dp2670
g7
Nsg8
Nsbag2
(g3
g4
(ltRp2671
(dp2672
g7
Nsg8
Nsbag2
(g3
g4
(ltRp2673
(dp2674
g7
Nsg8
Nsbag2
(g3
g4
(ltRp2675
(dp2676
g7
Nsg8
Nsbag2
(g3
g4
(ltRp2677
(dp2678
g7
Nsg8
Nsbag2
(g3
g4
(ltRp2679
(dp2680
g7
Nsg8
Nsbag2
(g3
g4
(ltRp2681
(dp2682
g7
Nsg8
Nsbag2
(g3
g4
(ltRp2683
(dp2684
g7
Nsg8
Nsbag2
(g3
g4
(ltRp2685
(dp2686
g7
Nsg8
Nsbag2
(g3
g4
(ltRp2687
(dp2688
g7
Nsg8
Nsbag2
(g3
g4
(ltRp2689
(dp2690
g7
Nsg8
Nsbag2
(g3
g4
(ltRp2691
(dp2692
g7
Nsg8
Nsbag2
(g3
g4
(ltRp2693
(dp2694
g7
Nsg8
Nsbag2
(g3
g4
(ltRp2695
(dp2696
g7
Nsg8
Nsbag2
(g3
g4
(ltRp2697
(dp2698
g7
Nsg8
Nsbag2
(g3
g4
(ltRp2699
(dp2700
g7
Nsg8
Nsbag2
(g3
g4
(ltRp2701
(dp2702
g7
Nsg8
Nsbag2
(g3
g4
(ltRp2703
(dp2704
g7
Nsg8
Nsbag2
(g3
g4
(ltRp2705
(dp2706
g7
Nsg8
Nsbag2
(g3
g4
(ltRp2707
(dp2708
g7
Nsg8
Nsbag2
(g3
g4
(ltRp2709
(dp2710
g7
Nsg8
Nsbag2
(g3
g4
(ltRp2711
(dp2712
g7
Nsg8
Nsbag2
(g3
g4
(ltRp2713
(dp2714
g7
Nsg8
Nsbag2
(g3
g4
(ltRp2715
(dp2716
g7
Nsg8
Nsbag2
(g3
g4
(ltRp2717
(dp2718
g7
Nsg8
Nsbag2
(g3
g4
(ltRp2719
(dp2720
g7
Nsg8
Nsbag2
(g3
g4
(ltRp2721
(dp2722
g7
Nsg8
Nsbag2
(g3
g4
(ltRp2723
(dp2724
g7
Nsg8
Nsbag2
(g3
g4
(ltRp2725
(dp2726
g7
Nsg8
Nsbag2
(g3
g4
(ltRp2727
(dp2728
g7
Nsg8
Nsbag2
(g3
g4
(ltRp2729
(dp2730
g7
Nsg8
Nsbag2
(g3
g4
(ltRp2731
(dp2732
g7
Nsg8
Nsbag2
(g3
g4
(ltRp2733
(dp2734
g7
Nsg8
Nsbag2
(g3
g4
(ltRp2735
(dp2736
g7
Nsg8
Nsbag2
(g3
g4
(ltRp2737
(dp2738
g7
Nsg8
Nsbag2
(g3
g4
(ltRp2739
(dp2740
g7
Nsg8
Nsbag2
(g3
g4
(ltRp2741
(dp2742
g7
Nsg8
Nsbag2
(g3
g4
(ltRp2743
(dp2744
g7
Nsg8
Nsbag2
(g3
g4
(ltRp2745
(dp2746
g7
Nsg8
Nsbag2
(g3
g4
(ltRp2747
(dp2748
g7
Nsg8
Nsbag2
(g3
g4
(ltRp2749
(dp2750
g7
Nsg8
Nsbag2
(g3
g4
(ltRp2751
(dp2752
g7
Nsg8
Nsbag2
(g3
g4
(ltRp2753
(dp2754
g7
Nsg8
Nsbag2
(g3
g4
(ltRp2755
(dp2756
g7
Nsg8
Nsbag2
(g3
g4
(ltRp2757
(dp2758
g7
Nsg8
Nsbag2
(g3
g4
(ltRp2759
(dp2760
g7
Nsg8
Nsbag2
(g3
g4
(ltRp2761
(dp2762
g7
Nsg8
Nsbag2
(g3
g4
(ltRp2763
(dp2764
g7
Nsg8
Nsbag2
(g3
g4
(ltRp2765
(dp2766
g7
Nsg8
Nsbag2
(g3
g4
(ltRp2767
(dp2768
g7
Nsg8
Nsbag2
(g3
g4
(ltRp2769
(dp2770
g7
Nsg8
Nsbag2
(g3
g4
(ltRp2771
(dp2772
g7
Nsg8
Nsbag2
(g3
g4
(ltRp2773
(dp2774
g7
Nsg8
Nsbag2
(g3
g4
(ltRp2775
(dp2776
g7
Nsg8
Nsbag2
(g3
g4
(ltRp2777
(dp2778
g7
Nsg8
Nsbag2
(g3
g4
(ltRp2779
(dp2780
g7
Nsg8
Nsbag2
(g3
g4
(ltRp2781
(dp2782
g7
Nsg8
Nsbag2
(g3
g4
(ltRp2783
(dp2784
g7
Nsg8
Nsbag2
(g3
g4
(ltRp2785
(dp2786
g7
Nsg8
Nsbag2
(g3
g4
(ltRp2787
(dp2788
g7
Nsg8
Nsbag2
(g3
g4
(ltRp2789
(dp2790
g7
Nsg8
Nsbag2
(g3
g4
(ltRp2791
(dp2792
g7
Nsg8
Nsbag2
(g3
g4
(ltRp2793
(dp2794
g7
Nsg8
Nsbag2
(g3
g4
(ltRp2795
(dp2796
g7
Nsg8
Nsbag2
(g3
g4
(ltRp2797
(dp2798
g7
Nsg8
Nsbag2
(g3
g4
(ltRp2799
(dp2800
g7
Nsg8
Nsbag2
(g3
g4
(ltRp2801
(dp2802
g7
Nsg8
Nsbag2
(g3
g4
(ltRp2803
(dp2804
g7
Nsg8
Nsbag2
(g3
g4
(ltRp2805
(dp2806
g7
Nsg8
Nsbag2
(g3
g4
(ltRp2807
(dp2808
g7
Nsg8
Nsbag2
(g3
g4
(ltRp2809
(dp2810
g7
Nsg8
Nsbag2
(g3
g4
(ltRp2811
(dp2812
g7
Nsg8
Nsbag2
(g3
g4
(ltRp2813
(dp2814
g7
Nsg8
Nsbag2
(g3
g4
(ltRp2815
(dp2816
g7
Nsg8
Nsbag2
(g3
g4
(ltRp2817
(dp2818
g7
Nsg8
Nsbag2
(g3
g4
(ltRp2819
(dp2820
g7
Nsg8
Nsbag2
(g3
g4
(ltRp2821
(dp2822
g7
Nsg8
Nsbag2
(g3
g4
(ltRp2823
(dp2824
g7
Nsg8
Nsbag2
(g3
g4
(ltRp2825
(dp2826
g7
Nsg8
Nsbag2
(g3
g4
(ltRp2827
(dp2828
g7
Nsg8
Nsbag2
(g3
g4
(ltRp2829
(dp2830
g7
Nsg8
Nsbag2
(g3
g4
(ltRp2831
(dp2832
g7
Nsg8
Nsbag2
(g3
g4
(ltRp2833
(dp2834
g7
Nsg8
Nsbag2
(g3
g4
(ltRp2835
(dp2836
g7
Nsg8
Nsbag2
(g3
g4
(ltRp2837
(dp2838
g7
Nsg8
Nsbag2
(g3
g4
(ltRp2839
(dp2840
g7
Nsg8
Nsbag2
(g3
g4
(ltRp2841
(dp2842
g7
Nsg8
Nsbag2
(g3
g4
(ltRp2843
(dp2844
g7
Nsg8
Nsbag2
(g3
g4
(ltRp2845
(dp2846
g7
Nsg8
Nsbag2
(g3
g4
(ltRp2847
(dp2848
g7
Nsg8
Nsbag2
(g3
g4
(ltRp2849
(dp2850
g7
Nsg8
Nsbag2
(g3
g4
(ltRp2851
(dp2852
g7
Nsg8
Nsbag2
(g3
g4
(ltRp2853
(dp2854
g7
Nsg8
Nsbag2
(g3
g4
(ltRp2855
(dp2856
g7
Nsg8
Nsbag2
(g3
g4
(ltRp2857
(dp2858
g7
Nsg8
Nsbag2
(g3
g4
(ltRp2859
(dp2860
g7
Nsg8
Nsbag2
(g3
g4
(ltRp2861
(dp2862
g7
Nsg8
Nsbag2
(g3
g4
(ltRp2863
(dp2864
g7
Nsg8
Nsbag2
(g3
g4
(ltRp2865
(dp2866
g7
Nsg8
Nsbag2
(g3
g4
(ltRp2867
(dp2868
g7
Nsg8
Nsbag2
(g3
g4
(ltRp2869
(dp2870
g7
Nsg8
Nsbag2
(g3
g4
(ltRp2871
(dp2872
g7
Nsg8
Nsbag2
(g3
g4
(ltRp2873
(dp2874
g7
Nsg8
Nsbag2
(g3
g4
(ltRp2875
(dp2876
g7
Nsg8
Nsbag2
(g3
g4
(ltRp2877
(dp2878
g7
Nsg8
Nsbag2
(g3
g4
(ltRp2879
(dp2880
g7
Nsg8
Nsbag2
(g3
g4
(ltRp2881
(dp2882
g7
Nsg8
Nsbag2
(g3
g4
(ltRp2883
(dp2884
g7
Nsg8
Nsbag2
(g3
g4
(ltRp2885
(dp2886
g7
Nsg8
Nsbag2
(g3
g4
(ltRp2887
(dp2888
g7
Nsg8
Nsbag2
(g3
g4
(ltRp2889
(dp2890
g7
Nsg8
Nsbag2
(g3
g4
(ltRp2891
(dp2892
g7
Nsg8
Nsbag2
(g3
g4
(ltRp2893
(dp2894
g7
Nsg8
Nsbag2
(g3
g4
(ltRp2895
(dp2896
g7
Nsg8
Nsbag2
(g3
g4
(ltRp2897
(dp2898
g7
Nsg8
Nsbag2
(g3
g4
(ltRp2899
(dp2900
g7
Nsg8
Nsbag2
(g3
g4
(ltRp2901
(dp2902
g7
Nsg8
Nsbag2
(g3
g4
(ltRp2903
(dp2904
g7
Nsg8
Nsbag2
(g3
g4
(ltRp2905
(dp2906
g7
Nsg8
Nsbag2
(g3
g4
(ltRp2907
(dp2908
g7
Nsg8
Nsbag2
(g3
g4
(ltRp2909
(dp2910
g7
Nsg8
Nsbag2
(g3
g4
(ltRp2911
(dp2912
g7
Nsg8
Nsbag2
(g3
g4
(ltRp2913
(dp2914
g7
Nsg8
Nsbag2
(g3
g4
(ltRp2915
(dp2916
g7
Nsg8
Nsbag2
(g3
g4
(ltRp2917
(dp2918
g7
Nsg8
Nsbag2
(g3
g4
(ltRp2919
(dp2920
g7
Nsg8
Nsbag2
(g3
g4
(ltRp2921
(dp2922
g7
Nsg8
Nsbag2
(g3
g4
(ltRp2923
(dp2924
g7
Nsg8
Nsbag2
(g3
g4
(ltRp2925
(dp2926
g7
Nsg8
Nsbag2
(g3
g4
(ltRp2927
(dp2928
g7
Nsg8
Nsbag2
(g3
g4
(ltRp2929
(dp2930
g7
Nsg8
Nsbag2
(g3
g4
(ltRp2931
(dp2932
g7
Nsg8
Nsbag2
(g3
g4
(ltRp2933
(dp2934
g7
Nsg8
Nsbag2
(g3
g4
(ltRp2935
(dp2936
g7
Nsg8
Nsbag2
(g3
g4
(ltRp2937
(dp2938
g7
Nsg8
Nsbag2
(g3
g4
(ltRp2939
(dp2940
g7
Nsg8
Nsbag2
(g3
g4
(ltRp2941
(dp2942
g7
Nsg8
Nsbag2
(g3
g4
(ltRp2943
(dp2944
g7
Nsg8
Nsbag2
(g3
g4
(ltRp2945
(dp2946
g7
Nsg8
Nsbag2
(g3
g4
(ltRp2947
(dp2948
g7
Nsg8
Nsbag2
(g3
g4
(ltRp2949
(dp2950
g7
Nsg8
Nsbag2
(g3
g4
(ltRp2951
(dp2952
g7
Nsg8
Nsbag2
(g3
g4
(ltRp2953
(dp2954
g7
Nsg8
Nsbag2
(g3
g4
(ltRp2955
(dp2956
g7
Nsg8
Nsbag2
(g3
g4
(ltRp2957
(dp2958
g7
Nsg8
Nsbag2
(g3
g4
(ltRp2959
(dp2960
g7
Nsg8
Nsbag2
(g3
g4
(ltRp2961
(dp2962
g7
Nsg8
Nsbag2
(g3
g4
(ltRp2963
(dp2964
g7
Nsg8
Nsbag2
(g3
g4
(ltRp2965
(dp2966
g7
Nsg8
Nsbag2
(g3
g4
(ltRp2967
(dp2968
g7
Nsg8
Nsbag2
(g3
g4
(ltRp2969
(dp2970
g7
Nsg8
Nsbag2
(g3
g4
(ltRp2971
(dp2972
g7
Nsg8
Nsbag2
(g3
g4
(ltRp2973
(dp2974
g7
Nsg8
Nsbag2
(g3
g4
(ltRp2975
(dp2976
g7
Nsg8
Nsbag2
(g3
g4
(ltRp2977
(dp2978
g7
Nsg8
Nsbag2
(g3
g4
(ltRp2979
(dp2980
g7
Nsg8
Nsbag2
(g3
g4
(ltRp2981
(dp2982
g7
Nsg8
Nsbag2
(g3
g4
(ltRp2983
(dp2984
g7
Nsg8
Nsbag2
(g3
g4
(ltRp2985
(dp2986
g7
Nsg8
Nsbag2
(g3
g4
(ltRp2987
(dp2988
g7
Nsg8
Nsbag2
(g3
g4
(ltRp2989
(dp2990
g7
Nsg8
Nsbag2
(g3
g4
(ltRp2991
(dp2992
g7
Nsg8
Nsbag2
(g3
g4
(ltRp2993
(dp2994
g7
Nsg8
Nsbag2
(g3
g4
(ltRp2995
(dp2996
g7
Nsg8
Nsbag2
(g3
g4
(ltRp2997
(dp2998
g7
Nsg8
Nsbag2
(g3
g4
(ltRp2999
(dp3000
g7
Nsg8
Nsbag2
(g3
g4
(ltRp3001
(dp3002
g7
Nsg8
Nsbag2
(g3
g4
(ltRp3003
(dp3004
g7
Nsg8
Nsbag2
(g3
g4
(ltRp3005
(dp3006
g7
Nsg8
Nsbag2
(g3
g4
(ltRp3007
(dp3008
g7
Nsg8
Nsbag2
(g3
g4
(ltRp3009
(dp3010
g7
Nsg8
Nsbag2
(g3
g4
(ltRp3011
(dp3012
g7
Nsg8
Nsbag2
(g3
g4
(ltRp3013
(dp3014
g7
Nsg8
Nsbag2
(g3
g4
(ltRp3015
(dp3016
g7
Nsg8
Nsbag2
(g3
g4
(ltRp3017
(dp3018
g7
Nsg8
Nsbag2
(g3
g4
(ltRp3019
(dp3020
g7
Nsg8
Nsbag2
(g3
g4
(ltRp3021
(dp3022
g7
Nsg8
Nsbag2
(g3
g4
(ltRp3023
(dp3024
g7
Nsg8
Nsbag2
(g3
g4
(ltRp3025
(dp3026
g7
Nsg8
Nsbag2
(g3
g4
(ltRp3027
(dp3028
g7
Nsg8
Nsbag2
(g3
g4
(ltRp3029
(dp3030
g7
Nsg8
Nsbag2
(g3
g4
(ltRp3031
(dp3032
g7
Nsg8
Nsbag2
(g3
g4
(ltRp3033
(dp3034
g7
Nsg8
Nsbag2
(g3
g4
(ltRp3035
(dp3036
g7
Nsg8
Nsbag2
(g3
g4
(ltRp3037
(dp3038
g7
Nsg8
Nsbag2
(g3
g4
(ltRp3039
(dp3040
g7
Nsg8
Nsbag2
(g3
g4
(ltRp3041
(dp3042
g7
Nsg8
Nsbag2
(g3
g4
(ltRp3043
(dp3044
g7
Nsg8
Nsbag2
(g3
g4
(ltRp3045
(dp3046
g7
Nsg8
Nsbag2
(g3
g4
(ltRp3047
(dp3048
g7
Nsg8
Nsbag2
(g3
g4
(ltRp3049
(dp3050
g7
Nsg8
Nsbag2
(g3
g4
(ltRp3051
(dp3052
g7
Nsg8
Nsbag2
(g3
g4
(ltRp3053
(dp3054
g7
Nsg8
Nsbag2
(g3
g4
(ltRp3055
(dp3056
g7
Nsg8
Nsbag2
(g3
g4
(ltRp3057
(dp3058
g7
Nsg8
Nsbag2
(g3
g4
(ltRp3059
(dp3060
g7
Nsg8
Nsbag2
(g3
g4
(ltRp3061
(dp3062
g7
Nsg8
Nsbag2
(g3
g4
(ltRp3063
(dp3064
g7
Nsg8
Nsbag2
(g3
g4
(ltRp3065
(dp3066
g7
Nsg8
Nsbag2
(g3
g4
(ltRp3067
(dp3068
g7
Nsg8
Nsbag2
(g3
g4
(ltRp3069
(dp3070
g7
Nsg8
Nsbag2
(g3
g4
(ltRp3071
(dp3072
g7
Nsg8
Nsbag2
(g3
g4
(ltRp3073
(dp3074
g7
Nsg8
Nsbag2
(g3
g4
(ltRp3075
(dp3076
g7
Nsg8
Nsbag2
(g3
g4
(ltRp3077
(dp3078
g7
Nsg8
Nsbag2
(g3
g4
(ltRp3079
(dp3080
g7
Nsg8
Nsbag2
(g3
g4
(ltRp3081
(dp3082
g7
Nsg8
Nsbag2
(g3
g4
(ltRp3083
(dp3084
g7
Nsg8
Nsbag2
(g3
g4
(ltRp3085
(dp3086
g7
Nsg8
Nsbag2
(g3
g4
(ltRp3087
(dp3088
g7
Nsg8
Nsbag2
(g3
g4
(ltRp3089
(dp3090
g7
Nsg8
Nsbag2
(g3
g4
(ltRp3091
(dp3092
g7
Nsg8
Nsbag2
(g3
g4
(ltRp3093
(dp3094
g7
Nsg8
Nsbag2
(g3
g4
(ltRp3095
(dp3096
g7
Nsg8
Nsbag2
(g3
g4
(ltRp3097
(dp3098
g7
Nsg8
Nsbag2
(g3
g4
(ltRp3099
(dp3100
g7
Nsg8
Nsbag2
(g3
g4
(ltRp3101
(dp3102
g7
Nsg8
Nsbag2
(g3
g4
(ltRp3103
(dp3104
g7
Nsg8
Nsbag2
(g3
g4
(ltRp3105
(dp3106
g7
Nsg8
Nsbag2
(g3
g4
(ltRp3107
(dp3108
g7
Nsg8
Nsbag2
(g3
g4
(ltRp3109
(dp3110
g7
Nsg8
Nsbag2
(g3
g4
(ltRp3111
(dp3112
g7
Nsg8
Nsbag2
(g3
g4
(ltRp3113
(dp3114
g7
Nsg8
Nsbag2
(g3
g4
(ltRp3115
(dp3116
g7
Nsg8
Nsbag2
(g3
g4
(ltRp3117
(dp3118
g7
Nsg8
Nsbag2
(g3
g4
(ltRp3119
(dp3120
g7
Nsg8
Nsbag2
(g3
g4
(ltRp3121
(dp3122
g7
Nsg8
Nsbag2
(g3
g4
(ltRp3123
(dp3124
g7
Nsg8
Nsbag2
(g3
g4
(ltRp3125
(dp3126
g7
Nsg8
Nsbag2
(g3
g4
(ltRp3127
(dp3128
g7
Nsg8
Nsbag2
(g3
g4
(ltRp3129
(dp3130
g7
Nsg8
Nsbag2
(g3
g4
(ltRp3131
(dp3132
g7
Nsg8
Nsbag2
(g3
g4
(ltRp3133
(dp3134
g7
Nsg8
Nsbag2
(g3
g4
(ltRp3135
(dp3136
g7
Nsg8
Nsbag2
(g3
g4
(ltRp3137
(dp3138
g7
Nsg8
Nsbag2
(g3
g4
(ltRp3139
(dp3140
g7
Nsg8
Nsbag2
(g3
g4
(ltRp3141
(dp3142
g7
Nsg8
Nsbag2
(g3
g4
(ltRp3143
(dp3144
g7
Nsg8
Nsbag2
(g3
g4
(ltRp3145
(dp3146
g7
Nsg8
Nsbag2
(g3
g4
(ltRp3147
(dp3148
g7
Nsg8
Nsbag2
(g3
g4
(ltRp3149
(dp3150
g7
Nsg8
Nsbag2
(g3
g4
(ltRp3151
(dp3152
g7
Nsg8
Nsbag2
(g3
g4
(ltRp3153
(dp3154
g7
Nsg8
Nsbag2
(g3
g4
(ltRp3155
(dp3156
g7
Nsg8
Nsbag2
(g3
g4
(ltRp3157
(dp3158
g7
Nsg8
Nsbag2
(g3
g4
(ltRp3159
(dp3160
g7
Nsg8
Nsbag2
(g3
g4
(ltRp3161
(dp3162
g7
Nsg8
Nsbag2
(g3
g4
(ltRp3163
(dp3164
g7
Nsg8
Nsbag2
(g3
g4
(ltRp3165
(dp3166
g7
Nsg8
Nsbag2
(g3
g4
(ltRp3167
(dp3168
g7
Nsg8
Nsbag2
(g3
g4
(ltRp3169
(dp3170
g7
Nsg8
Nsbag2
(g3
g4
(ltRp3171
(dp3172
g7
Nsg8
Nsbag2
(g3
g4
(ltRp3173
(dp3174
g7
Nsg8
Nsbag2
(g3
g4
(ltRp3175
(dp3176
g7
Nsg8
Nsbag2
(g3
g4
(ltRp3177
(dp3178
g7
Nsg8
Nsbag2
(g3
g4
(ltRp3179
(dp3180
g7
Nsg8
Nsbag2
(g3
g4
(ltRp3181
(dp3182
g7
Nsg8
Nsbag2
(g3
g4
(ltRp3183
(dp3184
g7
Nsg8
Nsbag2
(g3
g4
(ltRp3185
(dp3186
g7
Nsg8
Nsbag2
(g3
g4
(ltRp3187
(dp3188
g7
Nsg8
Nsbag2
(g3
g4
(ltRp3189
(dp3190
g7
Nsg8
Nsbag2
(g3
g4
(ltRp3191
(dp3192
g7
Nsg8
Nsbag2
(g3
g4
(ltRp3193
(dp3194
g7
Nsg8
Nsbag2
(g3
g4
(ltRp3195
(dp3196
g7
Nsg8
Nsbag2
(g3
g4
(ltRp3197
(dp3198
g7
Nsg8
Nsbag2
(g3
g4
(ltRp3199
(dp3200
g7
Nsg8
Nsbag2
(g3
g4
(ltRp3201
(dp3202
g7
Nsg8
Nsbag2
(g3
g4
(ltRp3203
(dp3204
g7
Nsg8
Nsbag2
(g3
g4
(ltRp3205
(dp3206
g7
Nsg8
Nsbag2
(g3
g4
(ltRp3207
(dp3208
g7
Nsg8
Nsbag2
(g3
g4
(ltRp3209
(dp3210
g7
Nsg8
Nsbag2
(g3
g4
(ltRp3211
(dp3212
g7
Nsg8
Nsbag2
(g3
g4
(ltRp3213
(dp3214
g7
Nsg8
Nsbag2
(g3
g4
(ltRp3215
(dp3216
g7
Nsg8
Nsbag2
(g3
g4
(ltRp3217
(dp3218
g7
Nsg8
Nsbag2
(g3
g4
(ltRp3219
(dp3220
g7
Nsg8
Nsbag2
(g3
g4
(ltRp3221
(dp3222
g7
Nsg8
Nsbag2
(g3
g4
(ltRp3223
(dp3224
g7
Nsg8
Nsbag2
(g3
g4
(ltRp3225
(dp3226
g7
Nsg8
Nsbag2
(g3
g4
(ltRp3227
(dp3228
g7
Nsg8
Nsbag2
(g3
g4
(ltRp3229
(dp3230
g7
Nsg8
Nsbag2
(g3
g4
(ltRp3231
(dp3232
g7
Nsg8
Nsbag2
(g3
g4
(ltRp3233
(dp3234
g7
Nsg8
Nsbag2
(g3
g4
(ltRp3235
(dp3236
g7
Nsg8
Nsbag2
(g3
g4
(ltRp3237
(dp3238
g7
Nsg8
Nsbag2
(g3
g4
(ltRp3239
(dp3240
g7
Nsg8
Nsbag2
(g3
g4
(ltRp3241
(dp3242
g7
Nsg8
Nsbag2
(g3
g4
(ltRp3243
(dp3244
g7
Nsg8
Nsbag2
(g3
g4
(ltRp3245
(dp3246
g7
Nsg8
Nsbag2
(g3
g4
(ltRp3247
(dp3248
g7
Nsg8
Nsbag2
(g3
g4
(ltRp3249
(dp3250
g7
Nsg8
Nsbag2
(g3
g4
(ltRp3251
(dp3252
g7
Nsg8
Nsbag2
(g3
g4
(ltRp3253
(dp3254
g7
Nsg8
Nsbag2
(g3
g4
(ltRp3255
(dp3256
g7
Nsg8
Nsbag2
(g3
g4
(ltRp3257
(dp3258
g7
Nsg8
Nsbag2
(g3
g4
(ltRp3259
(dp3260
g7
Nsg8
Nsbag2
(g3
g4
(ltRp3261
(dp3262
g7
Nsg8
Nsbag2
(g3
g4
(ltRp3263
(dp3264
g7
Nsg8
Nsbag2
(g3
g4
(ltRp3265
(dp3266
g7
Nsg8
Nsbag2
(g3
g4
(ltRp3267
(dp3268
g7
Nsg8
Nsbag2
(g3
g4
(ltRp3269
(dp3270
g7
Nsg8
Nsbag2
(g3
g4
(ltRp3271
(dp3272
g7
Nsg8
Nsbag2
(g3
g4
(ltRp3273
(dp3274
g7
Nsg8
Nsbag2
(g3
g4
(ltRp3275
(dp3276
g7
Nsg8
Nsbag2
(g3
g4
(ltRp3277
(dp3278
g7
Nsg8
Nsbag2
(g3
g4
(ltRp3279
(dp3280
g7
Nsg8
Nsbag2
(g3
g4
(ltRp3281
(dp3282
g7
Nsg8
Nsbag2
(g3
g4
(ltRp3283
(dp3284
g7
Nsg8
Nsbag2
(g3
g4
(ltRp3285
(dp3286
g7
Nsg8
Nsbag2
(g3
g4
(ltRp3287
(dp3288
g7
Nsg8
Nsbag2
(g3
g4
(ltRp3289
(dp3290
g7
Nsg8
Nsbag2
(g3
g4
(ltRp3291
(dp3292
g7
Nsg8
Nsbag2
(g3
g4
(ltRp3293
(dp3294
g7
Nsg8
Nsbag2
(g3
g4
(ltRp3295
(dp3296
g7
Nsg8
Nsbag2
(g3
g4
(ltRp3297
(dp3298
g7
Nsg8
Nsbag2
(g3
g4
(ltRp3299
(dp3300
g7
Nsg8
Nsbag2
(g3
g4
(ltRp3301
(dp3302
g7
Nsg8
Nsbag2
(g3
g4
(ltRp3303
(dp3304
g7
Nsg8
Nsbag2
(g3
g4
(ltRp3305
(dp3306
g7
Nsg8
Nsbag2
(g3
g4
(ltRp3307
(dp3308
g7
Nsg8
Nsbag2
(g3
g4
(ltRp3309
(dp3310
g7
Nsg8
Nsbag2
(g3
g4
(ltRp3311
(dp3312
g7
Nsg8
Nsbag2
(g3
g4
(ltRp3313
(dp3314
g7
Nsg8
Nsbag2
(g3
g4
(ltRp3315
(dp3316
g7
Nsg8
Nsbag2
(g3
g4
(ltRp3317
(dp3318
g7
Nsg8
Nsbag2
(g3
g4
(ltRp3319
(dp3320
g7
Nsg8
Nsbag2
(g3
g4
(ltRp3321
(dp3322
g7
Nsg8
Nsbag2
(g3
g4
(ltRp3323
(dp3324
g7
Nsg8
Nsbag2
(g3
g4
(ltRp3325
(dp3326
g7
Nsg8
Nsbag2
(g3
g4
(ltRp3327
(dp3328
g7
Nsg8
Nsbag2
(g3
g4
(ltRp3329
(dp3330
g7
Nsg8
Nsbag2
(g3
g4
(ltRp3331
(dp3332
g7
Nsg8
Nsbag2
(g3
g4
(ltRp3333
(dp3334
g7
Nsg8
Nsbag2
(g3
g4
(ltRp3335
(dp3336
g7
Nsg8
Nsbag2
(g3
g4
(ltRp3337
(dp3338
g7
Nsg8
Nsbag2
(g3
g4
(ltRp3339
(dp3340
g7
Nsg8
Nsbag2
(g3
g4
(ltRp3341
(dp3342
g7
Nsg8
Nsbag2
(g3
g4
(ltRp3343
(dp3344
g7
Nsg8
Nsbag2
(g3
g4
(ltRp3345
(dp3346
g7
Nsg8
Nsbag2
(g3
g4
(ltRp3347
(dp3348
g7
Nsg8
Nsbag2
(g3
g4
(ltRp3349
(dp3350
g7
Nsg8
Nsbag2
(g3
g4
(ltRp3351
(dp3352
g7
Nsg8
Nsbag2
(g3
g4
(ltRp3353
(dp3354
g7
Nsg8
Nsbag2
(g3
g4
(ltRp3355
(dp3356
g7
Nsg8
Nsbag2
(g3
g4
(ltRp3357
(dp3358
g7
Nsg8
Nsbag2
(g3
g4
(ltRp3359
(dp3360
g7
Nsg8
Nsbag2
(g3
g4
(ltRp3361
(dp3362
g7
Nsg8
Nsbag2
(g3
g4
(ltRp3363
(dp3364
g7
Nsg8
Nsbag2
(g3
g4
(ltRp3365
(dp3366
g7
Nsg8
Nsbag2
(g3
g4
(ltRp3367
(dp3368
g7
Nsg8
Nsbag2
(g3
g4
(ltRp3369
(dp3370
g7
Nsg8
Nsbag2
(g3
g4
(ltRp3371
(dp3372
g7
Nsg8
Nsbag2
(g3
g4
(ltRp3373
(dp3374
g7
Nsg8
Nsbag2
(g3
g4
(ltRp3375
(dp3376
g7
Nsg8
Nsbag2
(g3
g4
(ltRp3377
(dp3378
g7
Nsg8
Nsbag2
(g3
g4
(ltRp3379
(dp3380
g7
Nsg8
Nsbag2
(g3
g4
(ltRp3381
(dp3382
g7
Nsg8
Nsbag2
(g3
g4
(ltRp3383
(dp3384
g7
Nsg8
Nsbag2
(g3
g4
(ltRp3385
(dp3386
g7
Nsg8
Nsbag2
(g3
g4
(ltRp3387
(dp3388
g7
Nsg8
Nsbag2
(g3
g4
(ltRp3389
(dp3390
g7
Nsg8
Nsbag2
(g3
g4
(ltRp3391
(dp3392
g7
Nsg8
Nsbag2
(g3
g4
(ltRp3393
(dp3394
g7
Nsg8
Nsbag2
(g3
g4
(ltRp3395
(dp3396
g7
Nsg8
Nsbag2
(g3
g4
(ltRp3397
(dp3398
g7
Nsg8
Nsbag2
(g3
g4
(ltRp3399
(dp3400
g7
Nsg8
Nsbag2
(g3
g4
(ltRp3401
(dp3402
g7
Nsg8
Nsbag2
(g3
g4
(ltRp3403
(dp3404
g7
Nsg8
Nsbag2
(g3
g4
(ltRp3405
(dp3406
g7
Nsg8
Nsbag2
(g3
g4
(ltRp3407
(dp3408
g7
Nsg8
Nsbag2
(g3
g4
(ltRp3409
(dp3410
g7
Nsg8
Nsbag2
(g3
g4
(ltRp3411
(dp3412
g7
Nsg8
Nsbag2
(g3
g4
(ltRp3413
(dp3414
g7
Nsg8
Nsbag2
(g3
g4
(ltRp3415
(dp3416
g7
Nsg8
Nsbag2
(g3
g4
(ltRp3417
(dp3418
g7
Nsg8
Nsbag2
(g3
g4
(ltRp3419
(dp3420
g7
Nsg8
Nsbag2
(g3
g4
(ltRp3421
(dp3422
g7
Nsg8
Nsbag2
(g3
g4
(ltRp3423
(dp3424
g7
Nsg8
Nsbag2
(g3
g4
(ltRp3425
(dp3426
g7
Nsg8
Nsbag2
(g3
g4
(ltRp3427
(dp3428
g7
Nsg8
Nsbag2
(g3
g4
(ltRp3429
(dp3430
g7
Nsg8
Nsbag2
(g3
g4
(ltRp3431
(dp3432
g7
Nsg8
Nsbag2
(g3
g4
(ltRp3433
(dp3434
g7
Nsg8
Nsbag2
(g3
g4
(ltRp3435
(dp3436
g7
Nsg8
Nsbag2
(g3
g4
(ltRp3437
(dp3438
g7
Nsg8
Nsbag2
(g3
g4
(ltRp3439
(dp3440
g7
Nsg8
Nsbag2
(g3
g4
(ltRp3441
(dp3442
g7
Nsg8
Nsbag2
(g3
g4
(ltRp3443
(dp3444
g7
Nsg8
Nsbag2
(g3
g4
(ltRp3445
(dp3446
g7
Nsg8
Nsbag2
(g3
g4
(ltRp3447
(dp3448
g7
Nsg8
Nsbag2
(g3
g4
(ltRp3449
(dp3450
g7
Nsg8
Nsbag2
(g3
g4
(ltRp3451
(dp3452
g7
Nsg8
Nsbag2
(g3
g4
(ltRp3453
(dp3454
g7
Nsg8
Nsbag2
(g3
g4
(ltRp3455
(dp3456
g7
Nsg8
Nsbag2
(g3
g4
(ltRp3457
(dp3458
g7
Nsg8
Nsbag2
(g3
g4
(ltRp3459
(dp3460
g7
Nsg8
Nsbag2
(g3
g4
(ltRp3461
(dp3462
g7
Nsg8
Nsbag2
(g3
g4
(ltRp3463
(dp3464
g7
Nsg8
Nsbag2
(g3
g4
(ltRp3465
(dp3466
g7
Nsg8
Nsbag2
(g3
g4
(ltRp3467
(dp3468
g7
Nsg8
Nsbag2
(g3
g4
(ltRp3469
(dp3470
g7
Nsg8
Nsbag2
(g3
g4
(ltRp3471
(dp3472
g7
Nsg8
Nsbag2
(g3
g4
(ltRp3473
(dp3474
g7
Nsg8
Nsbag2
(g3
g4
(ltRp3475
(dp3476
g7
Nsg8
Nsbag2
(g3
g4
(ltRp3477
(dp3478
g7
Nsg8
Nsbag2
(g3
g4
(ltRp3479
(dp3480
g7
Nsg8
Nsbag2
(g3
g4
(ltRp3481
(dp3482
g7
Nsg8
Nsbag2
(g3
g4
(ltRp3483
(dp3484
g7
Nsg8
Nsbag2
(g3
g4
(ltRp3485
(dp3486
g7
Nsg8
Nsbag2
(g3
g4
(ltRp3487
(dp3488
g7
Nsg8
Nsbag2
(g3
g4
(ltRp3489
(dp3490
g7
Nsg8
Nsbag2
(g3
g4
(ltRp3491
(dp3492
g7
Nsg8
Nsbag2
(g3
g4
(ltRp3493
(dp3494
g7
Nsg8
Nsbag2
(g3
g4
(ltRp3495
(dp3496
g7
Nsg8
Nsbag2
(g3
g4
(ltRp3497
(dp3498
g7
Nsg8
Nsbag2
(g3
g4
(ltRp3499
(dp3500
g7
Nsg8
Nsbag2
(g3
g4
(ltRp3501
(dp3502
g7
Nsg8
Nsbag2
(g3
g4
(ltRp3503
(dp3504
g7
Nsg8
Nsbag2
(g3
g4
(ltRp3505
(dp3506
g7
Nsg8
Nsbag2
(g3
g4
(ltRp3507
(dp3508
g7
Nsg8
Nsbag2
(g3
g4
(ltRp3509
(dp3510
g7
Nsg8
Nsbag2
(g3
g4
(ltRp3511
(dp3512
g7
Nsg8
Nsbag2
(g3
g4
(ltRp3513
(dp3514
g7
Nsg8
Nsbag2
(g3
g4
(ltRp3515
(dp3516
g7
Nsg8
Nsbag2
(g3
g4
(ltRp3517
(dp3518
g7
Nsg8
Nsbag2
(g3
g4
(ltRp3519
(dp3520
g7
Nsg8
Nsbag2
(g3
g4
(ltRp3521
(dp3522
g7
Nsg8
Nsbag2
(g3
g4
(ltRp3523
(dp3524
g7
Nsg8
Nsbag2
(g3
g4
(ltRp3525
(dp3526
g7
Nsg8
Nsbag2
(g3
g4
(ltRp3527
(dp3528
g7
Nsg8
Nsbag2
(g3
g4
(ltRp3529
(dp3530
g7
Nsg8
Nsbag2
(g3
g4
(ltRp3531
(dp3532
g7
Nsg8
Nsbag2
(g3
g4
(ltRp3533
(dp3534
g7
Nsg8
Nsbag2
(g3
g4
(ltRp3535
(dp3536
g7
Nsg8
Nsbag2
(g3
g4
(ltRp3537
(dp3538
g7
Nsg8
Nsbag2
(g3
g4
(ltRp3539
(dp3540
g7
Nsg8
Nsbag2
(g3
g4
(ltRp3541
(dp3542
g7
Nsg8
Nsbag2
(g3
g4
(ltRp3543
(dp3544
g7
Nsg8
Nsbag2
(g3
g4
(ltRp3545
(dp3546
g7
Nsg8
Nsbag2
(g3
g4
(ltRp3547
(dp3548
g7
Nsg8
Nsbag2
(g3
g4
(ltRp3549
(dp3550
g7
Nsg8
Nsbag2
(g3
g4
(ltRp3551
(dp3552
g7
Nsg8
Nsbag2
(g3
g4
(ltRp3553
(dp3554
g7
Nsg8
Nsbag2
(g3
g4
(ltRp3555
(dp3556
g7
Nsg8
Nsbag2
(g3
g4
(ltRp3557
(dp3558
g7
Nsg8
Nsbag2
(g3
g4
(ltRp3559
(dp3560
g7
Nsg8
Nsbag2
(g3
g4
(ltRp3561
(dp3562
g7
Nsg8
Nsbag2
(g3
g4
(ltRp3563
(dp3564
g7
Nsg8
Nsbag2
(g3
g4
(ltRp3565
(dp3566
g7
Nsg8
Nsbag2
(g3
g4
(ltRp3567
(dp3568
g7
Nsg8
Nsbag2
(g3
g4
(ltRp3569
(dp3570
g7
Nsg8
Nsbag2
(g3
g4
(ltRp3571
(dp3572
g7
Nsg8
Nsbag2
(g3
g4
(ltRp3573
(dp3574
g7
Nsg8
Nsbag2
(g3
g4
(ltRp3575
(dp3576
g7
Nsg8
Nsbag2
(g3
g4
(ltRp3577
(dp3578
g7
Nsg8
Nsbag2
(g3
g4
(ltRp3579
(dp3580
g7
Nsg8
Nsbag2
(g3
g4
(ltRp3581
(dp3582
g7
Nsg8
Nsbag2
(g3
g4
(ltRp3583
(dp3584
g7
Nsg8
Nsbag2
(g3
g4
(ltRp3585
(dp3586
g7
Nsg8
Nsbag2
(g3
g4
(ltRp3587
(dp3588
g7
Nsg8
Nsbag2
(g3
g4
(ltRp3589
(dp3590
g7
Nsg8
Nsbag2
(g3
g4
(ltRp3591
(dp3592
g7
Nsg8
Nsbag2
(g3
g4
(ltRp3593
(dp3594
g7
Nsg8
Nsbag2
(g3
g4
(ltRp3595
(dp3596
g7
Nsg8
Nsbag2
(g3
g4
(ltRp3597
(dp3598
g7
Nsg8
Nsbag2
(g3
g4
(ltRp3599
(dp3600
g7
Nsg8
Nsbag2
(g3
g4
(ltRp3601
(dp3602
g7
Nsg8
Nsbag2
(g3
g4
(ltRp3603
(dp3604
g7
Nsg8
Nsbag2
(g3
g4
(ltRp3605
(dp3606
g7
Nsg8
Nsbag2
(g3
g4
(ltRp3607
(dp3608
g7
Nsg8
Nsbag2
(g3
g4
(ltRp3609
(dp3610
g7
Nsg8
Nsbag2
(g3
g4
(ltRp3611
(dp3612
g7
Nsg8
Nsbag2
(g3
g4
(ltRp3613
(dp3614
g7
Nsg8
Nsbag2
(g3
g4
(ltRp3615
(dp3616
g7
Nsg8
Nsbag2
(g3
g4
(ltRp3617
(dp3618
g7
Nsg8
Nsbag2
(g3
g4
(ltRp3619
(dp3620
g7
Nsg8
Nsbag2
(g3
g4
(ltRp3621
(dp3622
g7
Nsg8
Nsbag2
(g3
g4
(ltRp3623
(dp3624
g7
Nsg8
Nsbag2
(g3
g4
(ltRp3625
(dp3626
g7
Nsg8
Nsbag2
(g3
g4
(ltRp3627
(dp3628
g7
Nsg8
Nsbag2
(g3
g4
(ltRp3629
(dp3630
g7
Nsg8
Nsbag2
(g3
g4
(ltRp3631
(dp3632
g7
Nsg8
Nsbag2
(g3
g4
(ltRp3633
(dp3634
g7
Nsg8
Nsbag2
(g3
g4
(ltRp3635
(dp3636
g7
Nsg8
Nsbag2
(g3
g4
(ltRp3637
(dp3638
g7
Nsg8
Nsbag2
(g3
g4
(ltRp3639
(dp3640
g7
Nsg8
Nsbag2
(g3
g4
(ltRp3641
(dp3642
g7
Nsg8
Nsbag2
(g3
g4
(ltRp3643
(dp3644
g7
Nsg8
Nsbag2
(g3
g4
(ltRp3645
(dp3646
g7
Nsg8
Nsbag2
(g3
g4
(ltRp3647
(dp3648
g7
Nsg8
Nsbag2
(g3
g4
(ltRp3649
(dp3650
g7
Nsg8
Nsbag2
(g3
g4
(ltRp3651
(dp3652
g7
Nsg8
Nsbag2
(g3
g4
(ltRp3653
(dp3654
g7
Nsg8
Nsbag2
(g3
g4
(ltRp3655
(dp3656
g7
Nsg8
Nsbag2
(g3
g4
(ltRp3657
(dp3658
g7
Nsg8
Nsbag2
(g3
g4
(ltRp3659
(dp3660
g7
Nsg8
Nsbag2
(g3
g4
(ltRp3661
(dp3662
g7
Nsg8
Nsbag2
(g3
g4
(ltRp3663
(dp3664
g7
Nsg8
Nsbag2
(g3
g4
(ltRp3665
(dp3666
g7
Nsg8
Nsbag2
(g3
g4
(ltRp3667
(dp3668
g7
Nsg8
Nsbag2
(g3
g4
(ltRp3669
(dp3670
g7
Nsg8
Nsbag2
(g3
g4
(ltRp3671
(dp3672
g7
Nsg8
Nsbag2
(g3
g4
(ltRp3673
(dp3674
g7
Nsg8
Nsbag2
(g3
g4
(ltRp3675
(dp3676
g7
Nsg8
Nsbag2
(g3
g4
(ltRp3677
(dp3678
g7
Nsg8
Nsbag2
(g3
g4
(ltRp3679
(dp3680
g7
Nsg8
Nsbag2
(g3
g4
(ltRp3681
(dp3682
g7
Nsg8
Nsbag2
(g3
g4
(ltRp3683
(dp3684
g7
Nsg8
Nsbag2
(g3
g4
(ltRp3685
(dp3686
g7
Nsg8
Nsbag2
(g3
g4
(ltRp3687
(dp3688
g7
Nsg8
Nsbag2
(g3
g4
(ltRp3689
(dp3690
g7
Nsg8
Nsbag2
(g3
g4
(ltRp3691
(dp3692
g7
Nsg8
Nsbag2
(g3
g4
(ltRp3693
(dp3694
g7
Nsg8
Nsbag2
(g3
g4
(ltRp3695
(dp3696
g7
Nsg8
Nsbag2
(g3
g4
(ltRp3697
(dp3698
g7
Nsg8
Nsbag2
(g3
g4
(ltRp3699
(dp3700
g7
Nsg8
Nsbag2
(g3
g4
(ltRp3701
(dp3702
g7
Nsg8
Nsbag2
(g3
g4
(ltRp3703
(dp3704
g7
Nsg8
Nsbag2
(g3
g4
(ltRp3705
(dp3706
g7
Nsg8
Nsbag2
(g3
g4
(ltRp3707
(dp3708
g7
Nsg8
Nsbag2
(g3
g4
(ltRp3709
(dp3710
g7
Nsg8
Nsbag2
(g3
g4
(ltRp3711
(dp3712
g7
Nsg8
Nsbag2
(g3
g4
(ltRp3713
(dp3714
g7
Nsg8
Nsbag2
(g3
g4
(ltRp3715
(dp3716
g7
Nsg8
Nsbag2
(g3
g4
(ltRp3717
(dp3718
g7
Nsg8
Nsbag2
(g3
g4
(ltRp3719
(dp3720
g7
Nsg8
Nsbag2
(g3
g4
(ltRp3721
(dp3722
g7
Nsg8
Nsbag2
(g3
g4
(ltRp3723
(dp3724
g7
Nsg8
Nsbag2
(g3
g4
(ltRp3725
(dp3726
g7
Nsg8
Nsbag2
(g3
g4
(ltRp3727
(dp3728
g7
Nsg8
Nsbag2
(g3
g4
(ltRp3729
(dp3730
g7
Nsg8
Nsbag2
(g3
g4
(ltRp3731
(dp3732
g7
Nsg8
Nsbag2
(g3
g4
(ltRp3733
(dp3734
g7
Nsg8
Nsbag2
(g3
g4
(ltRp3735
(dp3736
g7
Nsg8
Nsbag2
(g3
g4
(ltRp3737
(dp3738
g7
Nsg8
Nsbag2
(g3
g4
(ltRp3739
(dp3740
g7
Nsg8
Nsbag2
(g3
g4
(ltRp3741
(dp3742
g7
Nsg8
Nsbag2
(g3
g4
(ltRp3743
(dp3744
g7
Nsg8
Nsbag2
(g3
g4
(ltRp3745
(dp3746
g7
Nsg8
Nsbag2
(g3
g4
(ltRp3747
(dp3748
g7
Nsg8
Nsbag2
(g3
g4
(ltRp3749
(dp3750
g7
Nsg8
Nsbag2
(g3
g4
(ltRp3751
(dp3752
g7
Nsg8
Nsbag2
(g3
g4
(ltRp3753
(dp3754
g7
Nsg8
Nsbag2
(g3
g4
(ltRp3755
(dp3756
g7
Nsg8
Nsbag2
(g3
g4
(ltRp3757
(dp3758
g7
Nsg8
Nsbag2
(g3
g4
(ltRp3759
(dp3760
g7
Nsg8
Nsbag2
(g3
g4
(ltRp3761
(dp3762
g7
Nsg8
Nsbag2
(g3
g4
(ltRp3763
(dp3764
g7
Nsg8
Nsbag2
(g3
g4
(ltRp3765
(dp3766
g7
Nsg8
Nsbag2
(g3
g4
(ltRp3767
(dp3768
g7
Nsg8
Nsbag2
(g3
g4
(ltRp3769
(dp3770
g7
Nsg8
Nsbag2
(g3
g4
(ltRp3771
(dp3772
g7
Nsg8
Nsbag2
(g3
g4
(ltRp3773
(dp3774
g7
Nsg8
Nsbag2
(g3
g4
(ltRp3775
(dp3776
g7
Nsg8
Nsbag2
(g3
g4
(ltRp3777
(dp3778
g7
Nsg8
Nsbag2
(g3
g4
(ltRp3779
(dp3780
g7
Nsg8
Nsbag2
(g3
g4
(ltRp3781
(dp3782
g7
Nsg8
Nsbag2
(g3
g4
(ltRp3783
(dp3784
g7
Nsg8
Nsbag2
(g3
g4
(ltRp3785
(dp3786
g7
Nsg8
Nsbag2
(g3
g4
(ltRp3787
(dp3788
g7
Nsg8
Nsbag2
(g3
g4
(ltRp3789
(dp3790
g7
Nsg8
Nsbag2
(g3
g4
(ltRp3791
(dp3792
g7
Nsg8
Nsbag2
(g3
g4
(ltRp3793
(dp3794
g7
Nsg8
Nsbag2
(g3
g4
(ltRp3795
(dp3796
g7
Nsg8
Nsbag2
(g3
g4
(ltRp3797
(dp3798
g7
Nsg8
Nsbag2
(g3
g4
(ltRp3799
(dp3800
g7
Nsg8
Nsbag2
(g3
g4
(ltRp3801
(dp3802
g7
Nsg8
Nsbag2
(g3
g4
(ltRp3803
(dp3804
g7
Nsg8
Nsbag2
(g3
g4
(ltRp3805
(dp3806
g7
Nsg8
Nsbag2
(g3
g4
(ltRp3807
(dp3808
g7
Nsg8
Nsbag2
(g3
g4
(ltRp3809
(dp3810
g7
Nsg8
Nsbag2
(g3
g4
(ltRp3811
(dp3812
g7
Nsg8
Nsbag2
(g3
g4
(ltRp3813
(dp3814
g7
Nsg8
Nsbag2
(g3
g4
(ltRp3815
(dp3816
g7
Nsg8
Nsbag2
(g3
g4
(ltRp3817
(dp3818
g7
Nsg8
Nsbag2
(g3
g4
(ltRp3819
(dp3820
g7
Nsg8
Nsbag2
(g3
g4
(ltRp3821
(dp3822
g7
Nsg8
Nsbag2
(g3
g4
(ltRp3823
(dp3824
g7
Nsg8
Nsbag2
(g3
g4
(ltRp3825
(dp3826
g7
Nsg8
Nsbag2
(g3
g4
(ltRp3827
(dp3828
g7
Nsg8
Nsbag2
(g3
g4
(ltRp3829
(dp3830
g7
Nsg8
Nsbag2
(g3
g4
(ltRp3831
(dp3832
g7
Nsg8
Nsbag2
(g3
g4
(ltRp3833
(dp3834
g7
Nsg8
Nsbag2
(g3
g4
(ltRp3835
(dp3836
g7
Nsg8
Nsbag2
(g3
g4
(ltRp3837
(dp3838
g7
Nsg8
Nsbag2
(g3
g4
(ltRp3839
(dp3840
g7
Nsg8
Nsbag2
(g3
g4
(ltRp3841
(dp3842
g7
Nsg8
Nsbag2
(g3
g4
(ltRp3843
(dp3844
g7
Nsg8
Nsbag2
(g3
g4
(ltRp3845
(dp3846
g7
Nsg8
Nsbag2
(g3
g4
(ltRp3847
(dp3848
g7
Nsg8
Nsbag2
(g3
g4
(ltRp3849
(dp3850
g7
Nsg8
Nsbag2
(g3
g4
(ltRp3851
(dp3852
g7
Nsg8
Nsbag2
(g3
g4
(ltRp3853
(dp3854
g7
Nsg8
Nsbag2
(g3
g4
(ltRp3855
(dp3856
g7
Nsg8
Nsbag2
(g3
g4
(ltRp3857
(dp3858
g7
Nsg8
Nsbag2
(g3
g4
(ltRp3859
(dp3860
g7
Nsg8
Nsbag2
(g3
g4
(ltRp3861
(dp3862
g7
Nsg8
Nsbag2
(g3
g4
(ltRp3863
(dp3864
g7
Nsg8
Nsbag2
(g3
g4
(ltRp3865
(dp3866
g7
Nsg8
Nsbag2
(g3
g4
(ltRp3867
(dp3868
g7
Nsg8
Nsbag2
(g3
g4
(ltRp3869
(dp3870
g7
Nsg8
Nsbag2
(g3
g4
(ltRp3871
(dp3872
g7
Nsg8
Nsbag2
(g3
g4
(ltRp3873
(dp3874
g7
Nsg8
Nsbag2
(g3
g4
(ltRp3875
(dp3876
g7
Nsg8
Nsbag2
(g3
g4
(ltRp3877
(dp3878
g7
Nsg8
Nsbag2
(g3
g4
(ltRp3879
(dp3880
g7
Nsg8
Nsbag2
(g3
g4
(ltRp3881
(dp3882
g7
Nsg8
Nsbag2
(g3
g4
(ltRp3883
(dp3884
g7
Nsg8
Nsbag2
(g3
g4
(ltRp3885
(dp3886
g7
Nsg8
Nsbag2
(g3
g4
(ltRp3887
(dp3888
g7
Nsg8
Nsbag2
(g3
g4
(ltRp3889
(dp3890
g7
Nsg8
Nsbag2
(g3
g4
(ltRp3891
(dp3892
g7
Nsg8
Nsbag2
(g3
g4
(ltRp3893
(dp3894
g7
Nsg8
Nsbag2
(g3
g4
(ltRp3895
(dp3896
g7
Nsg8
Nsbag2
(g3
g4
(ltRp3897
(dp3898
g7
Nsg8
Nsbag2
(g3
g4
(ltRp3899
(dp3900
g7
Nsg8
Nsbag2
(g3
g4
(ltRp3901
(dp3902
g7
Nsg8
Nsbag2
(g3
g4
(ltRp3903
(dp3904
g7
Nsg8
Nsbag2
(g3
g4
(ltRp3905
(dp3906
g7
Nsg8
Nsbag2
(g3
g4
(ltRp3907
(dp3908
g7
Nsg8
Nsbag2
(g3
g4
(ltRp3909
(dp3910
g7
Nsg8
Nsbag2
(g3
g4
(ltRp3911
(dp3912
g7
Nsg8
Nsbag2
(g3
g4
(ltRp3913
(dp3914
g7
Nsg8
Nsbag2
(g3
g4
(ltRp3915
(dp3916
g7
Nsg8
Nsbag2
(g3
g4
(ltRp3917
(dp3918
g7
Nsg8
Nsbag2
(g3
g4
(ltRp3919
(dp3920
g7
Nsg8
Nsbag2
(g3
g4
(ltRp3921
(dp3922
g7
Nsg8
Nsbag2
(g3
g4
(ltRp3923
(dp3924
g7
Nsg8
Nsbag2
(g3
g4
(ltRp3925
(dp3926
g7
Nsg8
Nsbag2
(g3
g4
(ltRp3927
(dp3928
g7
Nsg8
Nsbag2
(g3
g4
(ltRp3929
(dp3930
g7
Nsg8
Nsbag2
(g3
g4
(ltRp3931
(dp3932
g7
Nsg8
Nsbag2
(g3
g4
(ltRp3933
(dp3934
g7
Nsg8
Nsbag2
(g3
g4
(ltRp3935
(dp3936
g7
Nsg8
Nsbag2
(g3
g4
(ltRp3937
(dp3938
g7
Nsg8
Nsbag2
(g3
g4
(ltRp3939
(dp3940
g7
Nsg8
Nsbag2
(g3
g4
(ltRp3941
(dp3942
g7
Nsg8
Nsbag2
(g3
g4
(ltRp3943
(dp3944
g7
Nsg8
Nsbag2
(g3
g4
(ltRp3945
(dp3946
g7
Nsg8
Nsbag2
(g3
g4
(ltRp3947
(dp3948
g7
Nsg8
Nsbag2
(g3
g4
(ltRp3949
(dp3950
g7
Nsg8
Nsbag2
(g3
g4
(ltRp3951
(dp3952
g7
Nsg8
Nsbag2
(g3
g4
(ltRp3953
(dp3954
g7
Nsg8
Nsbag2
(g3
g4
(ltRp3955
(dp3956
g7
Nsg8
Nsbag2
(g3
g4
(ltRp3957
(dp3958
g7
Nsg8
Nsbag2
(g3
g4
(ltRp3959
(dp3960
g7
Nsg8
Nsbag2
(g3
g4
(ltRp3961
(dp3962
g7
Nsg8
Nsbag2
(g3
g4
(ltRp3963
(dp3964
g7
Nsg8
Nsbag2
(g3
g4
(ltRp3965
(dp3966
g7
Nsg8
Nsbag2
(g3
g4
(ltRp3967
(dp3968
g7
Nsg8
Nsbag2
(g3
g4
(ltRp3969
(dp3970
g7
Nsg8
Nsbag2
(g3
g4
(ltRp3971
(dp3972
g7
Nsg8
Nsbag2
(g3
g4
(ltRp3973
(dp3974
g7
Nsg8
Nsbag2
(g3
g4
(ltRp3975
(dp3976
g7
Nsg8
Nsbag2
(g3
g4
(ltRp3977
(dp3978
g7
Nsg8
Nsbag2
(g3
g4
(ltRp3979
(dp3980
g7
Nsg8
Nsbag2
(g3
g4
(ltRp3981
(dp3982
g7
Nsg8
Nsbag2
(g3
g4
(ltRp3983
(dp3984
g7
Nsg8
Nsbag2
(g3
g4
(ltRp3985
(dp3986
g7
Nsg8
Nsbag2
(g3
g4
(ltRp3987
(dp3988
g7
Nsg8
Nsbag2
(g3
g4
(ltRp3989
(dp3990
g7
Nsg8
Nsbag2
(g3
g4
(ltRp3991
(dp3992
g7
Nsg8
Nsbag2
(g3
g4
(ltRp3993
(dp3994
g7
Nsg8
Nsbag2
(g3
g4
(ltRp3995
(dp3996
g7
Nsg8
Nsbag2
(g3
g4
(ltRp3997
(dp3998
g7
Nsg8
Nsbag2
(g3
g4
(ltRp3999
(dp4000
g7
Nsg8
Nsbag2
(g3
g4
(ltRp4001
(dp4002
g7
Nsg8
Nsbag2
(g3
g4
(ltRp4003
(dp4004
g7
Nsg8
Nsbag2
(g3
g4
(ltRp4005
(dp4006
g7
Nsg8
Nsbag2
(g3
g4
(ltRp4007
(dp4008
g7
Nsg8
Nsbag2
(g3
g4
(ltRp4009
(dp4010
g7
Nsg8
Nsbag2
(g3
g4
(ltRp4011
(dp4012
g7
Nsg8
Nsbag2
(g3
g4
(ltRp4013
(dp4014
g7
Nsg8
Nsbag2
(g3
g4
(ltRp4015
(dp4016
g7
Nsg8
Nsbag2
(g3
g4
(ltRp4017
(dp4018
g7
Nsg8
Nsbag2
(g3
g4
(ltRp4019
(dp4020
g7
Nsg8
Nsbag2
(g3
g4
(ltRp4021
(dp4022
g7
Nsg8
Nsbag2
(g3
g4
(ltRp4023
(dp4024
g7
Nsg8
Nsbag2
(g3
g4
(ltRp4025
(dp4026
g7
Nsg8
Nsbag2
(g3
g4
(ltRp4027
(dp4028
g7
Nsg8
Nsbag2
(g3
g4
(ltRp4029
(dp4030
g7
Nsg8
Nsbag2
(g3
g4
(ltRp4031
(dp4032
g7
Nsg8
Nsbag2
(g3
g4
(ltRp4033
(dp4034
g7
Nsg8
Nsbag2
(g3
g4
(ltRp4035
(dp4036
g7
Nsg8
Nsbag2
(g3
g4
(ltRp4037
(dp4038
g7
Nsg8
Nsbag2
(g3
g4
(ltRp4039
(dp4040
g7
Nsg8
Nsbag2
(g3
g4
(ltRp4041
(dp4042
g7
Nsg8
Nsbag2
(g3
g4
(ltRp4043
(dp4044
g7
Nsg8
Nsbag2
(g3
g4
(ltRp4045
(dp4046
g7
Nsg8
Nsbag2
(g3
g4
(ltRp4047
(dp4048
g7
Nsg8
Nsbag2
(g3
g4
(ltRp4049
(dp4050
g7
Nsg8
Nsbag2
(g3
g4
(ltRp4051
(dp4052
g7
Nsg8
Nsbag2
(g3
g4
(ltRp4053
(dp4054
g7
Nsg8
Nsbag2
(g3
g4
(ltRp4055
(dp4056
g7
Nsg8
Nsbag2
(g3
g4
(ltRp4057
(dp4058
g7
Nsg8
Nsbag2
(g3
g4
(ltRp4059
(dp4060
g7
Nsg8
Nsbag2
(g3
g4
(ltRp4061
(dp4062
g7
Nsg8
Nsbag2
(g3
g4
(ltRp4063
(dp4064
g7
Nsg8
Nsbag2
(g3
g4
(ltRp4065
(dp4066
g7
Nsg8
Nsbag2
(g3
g4
(ltRp4067
(dp4068
g7
Nsg8
Nsbag2
(g3
g4
(ltRp4069
(dp4070
g7
Nsg8
Nsbag2
(g3
g4
(ltRp4071
(dp4072
g7
Nsg8
Nsbag2
(g3
g4
(ltRp4073
(dp4074
g7
Nsg8
Nsbag2
(g3
g4
(ltRp4075
(dp4076
g7
Nsg8
Nsbag2
(g3
g4
(ltRp4077
(dp4078
g7
Nsg8
Nsbag2
(g3
g4
(ltRp4079
(dp4080
g7
Nsg8
Nsbag2
(g3
g4
(ltRp4081
(dp4082
g7
Nsg8
Nsbag2
(g3
g4
(ltRp4083
(dp4084
g7
Nsg8
Nsbag2
(g3
g4
(ltRp4085
(dp4086
g7
Nsg8
Nsbag2
(g3
g4
(ltRp4087
(dp4088
g7
Nsg8
Nsbag2
(g3
g4
(ltRp4089
(dp4090
g7
Nsg8
Nsbag2
(g3
g4
(ltRp4091
(dp4092
g7
Nsg8
Nsbag2
(g3
g4
(ltRp4093
(dp4094
g7
Nsg8
Nsbag2
(g3
g4
(ltRp4095
(dp4096
g7
Nsg8
Nsbag2
(g3
g4
(ltRp4097
(dp4098
g7
Nsg8
Nsbag2
(g3
g4
(ltRp4099
(dp4100
g7
Nsg8
Nsbag2
(g3
g4
(ltRp4101
(dp4102
g7
Nsg8
Nsbag2
(g3
g4
(ltRp4103
(dp4104
g7
Nsg8
Nsbag2
(g3
g4
(ltRp4105
(dp4106
g7
Nsg8
Nsbag2
(g3
g4
(ltRp4107
(dp4108
g7
Nsg8
Nsbag2
(g3
g4
(ltRp4109
(dp4110
g7
Nsg8
Nsbag2
(g3
g4
(ltRp4111
(dp4112
g7
Nsg8
Nsbag2
(g3
g4
(ltRp4113
(dp4114
g7
Nsg8
Nsbag2
(g3
g4
(ltRp4115
(dp4116
g7
Nsg8
Nsbag2
(g3
g4
(ltRp4117
(dp4118
g7
Nsg8
Nsbag2
(g3
g4
(ltRp4119
(dp4120
g7
Nsg8
Nsbag2
(g3
g4
(ltRp4121
(dp4122
g7
Nsg8
Nsbag2
(g3
g4
(ltRp4123
(dp4124
g7
Nsg8
Nsbag2
(g3
g4
(ltRp4125
(dp4126
g7
Nsg8
Nsbag2
(g3
g4
(ltRp4127
(dp4128
g7
Nsg8
Nsbag2
(g3
g4
(ltRp4129
(dp4130
g7
Nsg8
Nsbag2
(g3
g4
(ltRp4131
(dp4132
g7
Nsg8
Nsbag2
(g3
g4
(ltRp4133
(dp4134
g7
Nsg8
Nsbag2
(g3
g4
(ltRp4135
(dp4136
g7
Nsg8
Nsbag2
(g3
g4
(ltRp4137
(dp4138
g7
Nsg8
Nsbag2
(g3
g4
(ltRp4139
(dp4140
g7
Nsg8
Nsbag2
(g3
g4
(ltRp4141
(dp4142
g7
Nsg8
Nsbag2
(g3
g4
(ltRp4143
(dp4144
g7
Nsg8
Nsbag2
(g3
g4
(ltRp4145
(dp4146
g7
Nsg8
Nsbag2
(g3
g4
(ltRp4147
(dp4148
g7
Nsg8
Nsbag2
(g3
g4
(ltRp4149
(dp4150
g7
Nsg8
Nsbag2
(g3
g4
(ltRp4151
(dp4152
g7
Nsg8
Nsbag2
(g3
g4
(ltRp4153
(dp4154
g7
Nsg8
Nsbag2
(g3
g4
(ltRp4155
(dp4156
g7
Nsg8
Nsbag2
(g3
g4
(ltRp4157
(dp4158
g7
Nsg8
Nsbag2
(g3
g4
(ltRp4159
(dp4160
g7
Nsg8
Nsbag2
(g3
g4
(ltRp4161
(dp4162
g7
Nsg8
Nsbag2
(g3
g4
(ltRp4163
(dp4164
g7
Nsg8
Nsbag2
(g3
g4
(ltRp4165
(dp4166
g7
Nsg8
Nsbag2
(g3
g4
(ltRp4167
(dp4168
g7
Nsg8
Nsbag2
(g3
g4
(ltRp4169
(dp4170
g7
Nsg8
Nsbag2
(g3
g4
(ltRp4171
(dp4172
g7
Nsg8
Nsbag2
(g3
g4
(ltRp4173
(dp4174
g7
Nsg8
Nsbag2
(g3
g4
(ltRp4175
(dp4176
g7
Nsg8
Nsbag2
(g3
g4
(ltRp4177
(dp4178
g7
Nsg8
Nsbag2
(g3
g4
(ltRp4179
(dp4180
g7
Nsg8
Nsbag2
(g3
g4
(ltRp4181
(dp4182
g7
Nsg8
Nsbag2
(g3
g4
(ltRp4183
(dp4184
g7
Nsg8
Nsbag2
(g3
g4
(ltRp4185
(dp4186
g7
Nsg8
Nsbag2
(g3
g4
(ltRp4187
(dp4188
g7
Nsg8
Nsbag2
(g3
g4
(ltRp4189
(dp4190
g7
Nsg8
Nsbag2
(g3
g4
(ltRp4191
(dp4192
g7
Nsg8
Nsbag2
(g3
g4
(ltRp4193
(dp4194
g7
Nsg8
Nsbag2
(g3
g4
(ltRp4195
(dp4196
g7
Nsg8
Nsbag2
(g3
g4
(ltRp4197
(dp4198
g7
Nsg8
Nsbag2
(g3
g4
(ltRp4199
(dp4200
g7
Nsg8
Nsbag2
(g3
g4
(ltRp4201
(dp4202
g7
Nsg8
Nsbag2
(g3
g4
(ltRp4203
(dp4204
g7
Nsg8
Nsbag2
(g3
g4
(ltRp4205
(dp4206
g7
Nsg8
Nsbag2
(g3
g4
(ltRp4207
(dp4208
g7
Nsg8
Nsbag2
(g3
g4
(ltRp4209
(dp4210
g7
Nsg8
Nsbag2
(g3
g4
(ltRp4211
(dp4212
g7
Nsg8
Nsbag2
(g3
g4
(ltRp4213
(dp4214
g7
Nsg8
Nsbag2
(g3
g4
(ltRp4215
(dp4216
g7
Nsg8
Nsbag2
(g3
g4
(ltRp4217
(dp4218
g7
Nsg8
Nsbag2
(g3
g4
(ltRp4219
(dp4220
g7
Nsg8
Nsbag2
(g3
g4
(ltRp4221
(dp4222
g7
Nsg8
Nsbag2
(g3
g4
(ltRp4223
(dp4224
g7
Nsg8
Nsbag2
(g3
g4
(ltRp4225
(dp4226
g7
Nsg8
Nsbag2
(g3
g4
(ltRp4227
(dp4228
g7
Nsg8
Nsbag2
(g3
g4
(ltRp4229
(dp4230
g7
Nsg8
Nsbag2
(g3
g4
(ltRp4231
(dp4232
g7
Nsg8
Nsbag2
(g3
g4
(ltRp4233
(dp4234
g7
Nsg8
Nsbag2
(g3
g4
(ltRp4235
(dp4236
g7
Nsg8
Nsbag2
(g3
g4
(ltRp4237
(dp4238
g7
Nsg8
Nsbag2
(g3
g4
(ltRp4239
(dp4240
g7
Nsg8
Nsbag2
(g3
g4
(ltRp4241
(dp4242
g7
Nsg8
Nsbag2
(g3
g4
(ltRp4243
(dp4244
g7
Nsg8
Nsbag2
(g3
g4
(ltRp4245
(dp4246
g7
Nsg8
Nsbag2
(g3
g4
(ltRp4247
(dp4248
g7
Nsg8
Nsbag2
(g3
g4
(ltRp4249
(dp4250
g7
Nsg8
Nsbag2
(g3
g4
(ltRp4251
(dp4252
g7
Nsg8
Nsbag2
(g3
g4
(ltRp4253
(dp4254
g7
Nsg8
Nsbag2
(g3
g4
(ltRp4255
(dp4256
g7
Nsg8
Nsbag2
(g3
g4
(ltRp4257
(dp4258
g7
Nsg8
Nsbag2
(g3
g4
(ltRp4259
(dp4260
g7
Nsg8
Nsbag2
(g3
g4
(ltRp4261
(dp4262
g7
Nsg8
Nsbag2
(g3
g4
(ltRp4263
(dp4264
g7
Nsg8
Nsbag2
(g3
g4
(ltRp4265
(dp4266
g7
Nsg8
Nsbag2
(g3
g4
(ltRp4267
(dp4268
g7
Nsg8
Nsbag2
(g3
g4
(ltRp4269
(dp4270
g7
Nsg8
Nsbag2
(g3
g4
(ltRp4271
(dp4272
g7
Nsg8
Nsbag2
(g3
g4
(ltRp4273
(dp4274
g7
Nsg8
Nsbag2
(g3
g4
(ltRp4275
(dp4276
g7
Nsg8
Nsbag2
(g3
g4
(ltRp4277
(dp4278
g7
Nsg8
Nsbag2
(g3
g4
(ltRp4279
(dp4280
g7
Nsg8
Nsbag2
(g3
g4
(ltRp4281
(dp4282
g7
Nsg8
Nsbag2
(g3
g4
(ltRp4283
(dp4284
g7
Nsg8
Nsbag2
(g3
g4
(ltRp4285
(dp4286
g7
Nsg8
Nsbag2
(g3
g4
(ltRp4287
(dp4288
g7
Nsg8
Nsbag2
(g3
g4
(ltRp4289
(dp4290
g7
Nsg8
Nsbag2
(g3
g4
(ltRp4291
(dp4292
g7
Nsg8
Nsbag2
(g3
g4
(ltRp4293
(dp4294
g7
Nsg8
Nsbag2
(g3
g4
(ltRp4295
(dp4296
g7
Nsg8
Nsbag2
(g3
g4
(ltRp4297
(dp4298
g7
Nsg8
Nsbag2
(g3
g4
(ltRp4299
(dp4300
g7
Nsg8
Nsbag2
(g3
g4
(ltRp4301
(dp4302
g7
Nsg8
Nsbag2
(g3
g4
(ltRp4303
(dp4304
g7
Nsg8
Nsbag2
(g3
g4
(ltRp4305
(dp4306
g7
Nsg8
Nsbag2
(g3
g4
(ltRp4307
(dp4308
g7
Nsg8
Nsbag2
(g3
g4
(ltRp4309
(dp4310
g7
Nsg8
Nsbag2
(g3
g4
(ltRp4311
(dp4312
g7
Nsg8
Nsbag2
(g3
g4
(ltRp4313
(dp4314
g7
Nsg8
Nsbag2
(g3
g4
(ltRp4315
(dp4316
g7
Nsg8
Nsbag2
(g3
g4
(ltRp4317
(dp4318
g7
Nsg8
Nsbag2
(g3
g4
(ltRp4319
(dp4320
g7
Nsg8
Nsbag2
(g3
g4
(ltRp4321
(dp4322
g7
Nsg8
Nsbag2
(g3
g4
(ltRp4323
(dp4324
g7
Nsg8
Nsbag2
(g3
g4
(ltRp4325
(dp4326
g7
Nsg8
Nsbag2
(g3
g4
(ltRp4327
(dp4328
g7
Nsg8
Nsbag2
(g3
g4
(ltRp4329
(dp4330
g7
Nsg8
Nsbag2
(g3
g4
(ltRp4331
(dp4332
g7
Nsg8
Nsbag2
(g3
g4
(ltRp4333
(dp4334
g7
Nsg8
Nsbag2
(g3
g4
(ltRp4335
(dp4336
g7
Nsg8
Nsbag2
(g3
g4
(ltRp4337
(dp4338
g7
Nsg8
Nsbag2
(g3
g4
(ltRp4339
(dp4340
g7
Nsg8
Nsbag2
(g3
g4
(ltRp4341
(dp4342
g7
Nsg8
Nsbag2
(g3
g4
(ltRp4343
(dp4344
g7
Nsg8
Nsbag2
(g3
g4
(ltRp4345
(dp4346
g7
Nsg8
Nsbag2
(g3
g4
(ltRp4347
(dp4348
g7
Nsg8
Nsbag2
(g3
g4
(ltRp4349
(dp4350
g7
Nsg8
Nsbag2
(g3
g4
(ltRp4351
(dp4352
g7
Nsg8
Nsbag2
(g3
g4
(ltRp4353
(dp4354
g7
Nsg8
Nsbag2
(g3
g4
(ltRp4355
(dp4356
g7
Nsg8
Nsbag2
(g3
g4
(ltRp4357
(dp4358
g7
Nsg8
Nsbag2
(g3
g4
(ltRp4359
(dp4360
g7
Nsg8
Nsbag2
(g3
g4
(ltRp4361
(dp4362
g7
Nsg8
Nsbag2
(g3
g4
(ltRp4363
(dp4364
g7
Nsg8
Nsbag2
(g3
g4
(ltRp4365
(dp4366
g7
Nsg8
Nsbag2
(g3
g4
(ltRp4367
(dp4368
g7
Nsg8
Nsbag2
(g3
g4
(ltRp4369
(dp4370
g7
Nsg8
Nsbag2
(g3
g4
(ltRp4371
(dp4372
g7
Nsg8
Nsbag2
(g3
g4
(ltRp4373
(dp4374
g7
Nsg8
Nsbag2
(g3
g4
(ltRp4375
(dp4376
g7
Nsg8
Nsbag2
(g3
g4
(ltRp4377
(dp4378
g7
Nsg8
Nsbag2
(g3
g4
(ltRp4379
(dp4380
g7
Nsg8
Nsbag2
(g3
g4
(ltRp4381
(dp4382
g7
Nsg8
Nsbag2
(g3
g4
(ltRp4383
(dp4384
g7
Nsg8
Nsbag2
(g3
g4
(ltRp4385
(dp4386
g7
Nsg8
Nsbag2
(g3
g4
(ltRp4387
(dp4388
g7
Nsg8
Nsbag2
(g3
g4
(ltRp4389
(dp4390
g7
Nsg8
Nsbag2
(g3
g4
(ltRp4391
(dp4392
g7
Nsg8
Nsbag2
(g3
g4
(ltRp4393
(dp4394
g7
Nsg8
Nsbag2
(g3
g4
(ltRp4395
(dp4396
g7
Nsg8
Nsbag2
(g3
g4
(ltRp4397
(dp4398
g7
Nsg8
Nsbag2
(g3
g4
(ltRp4399
(dp4400
g7
Nsg8
Nsbag2
(g3
g4
(ltRp4401
(dp4402
g7
Nsg8
Nsbag2
(g3
g4
(ltRp4403
(dp4404
g7
Nsg8
Nsbag2
(g3
g4
(ltRp4405
(dp4406
g7
Nsg8
Nsbag2
(g3
g4
(ltRp4407
(dp4408
g7
Nsg8
Nsbag2
(g3
g4
(ltRp4409
(dp4410
g7
Nsg8
Nsbag2
(g3
g4
(ltRp4411
(dp4412
g7
Nsg8
Nsbag2
(g3
g4
(ltRp4413
(dp4414
g7
Nsg8
Nsbag2
(g3
g4
(ltRp4415
(dp4416
g7
Nsg8
Nsbag2
(g3
g4
(ltRp4417
(dp4418
g7
Nsg8
Nsbag2
(g3
g4
(ltRp4419
(dp4420
g7
Nsg8
Nsbag2
(g3
g4
(ltRp4421
(dp4422
g7
Nsg8
Nsbag2
(g3
g4
(ltRp4423
(dp4424
g7
Nsg8
Nsbag2
(g3
g4
(ltRp4425
(dp4426
g7
Nsg8
Nsbag2
(g3
g4
(ltRp4427
(dp4428
g7
Nsg8
Nsbag2
(g3
g4
(ltRp4429
(dp4430
g7
Nsg8
Nsbag2
(g3
g4
(ltRp4431
(dp4432
g7
Nsg8
Nsbag2
(g3
g4
(ltRp4433
(dp4434
g7
Nsg8
Nsbag2
(g3
g4
(ltRp4435
(dp4436
g7
Nsg8
Nsbag2
(g3
g4
(ltRp4437
(dp4438
g7
Nsg8
Nsbag2
(g3
g4
(ltRp4439
(dp4440
g7
Nsg8
Nsbag2
(g3
g4
(ltRp4441
(dp4442
g7
Nsg8
Nsbag2
(g3
g4
(ltRp4443
(dp4444
g7
Nsg8
Nsbag2
(g3
g4
(ltRp4445
(dp4446
g7
Nsg8
Nsbag2
(g3
g4
(ltRp4447
(dp4448
g7
Nsg8
Nsbag2
(g3
g4
(ltRp4449
(dp4450
g7
Nsg8
Nsbag2
(g3
g4
(ltRp4451
(dp4452
g7
Nsg8
Nsbag2
(g3
g4
(ltRp4453
(dp4454
g7
Nsg8
Nsbag2
(g3
g4
(ltRp4455
(dp4456
g7
Nsg8
Nsbag2
(g3
g4
(ltRp4457
(dp4458
g7
Nsg8
Nsbag2
(g3
g4
(ltRp4459
(dp4460
g7
Nsg8
Nsbag2
(g3
g4
(ltRp4461
(dp4462
g7
Nsg8
Nsbag2
(g3
g4
(ltRp4463
(dp4464
g7
Nsg8
Nsbag2
(g3
g4
(ltRp4465
(dp4466
g7
Nsg8
Nsbag2
(g3
g4
(ltRp4467
(dp4468
g7
Nsg8
Nsbag2
(g3
g4
(ltRp4469
(dp4470
g7
Nsg8
Nsbag2
(g3
g4
(ltRp4471
(dp4472
g7
Nsg8
Nsbag2
(g3
g4
(ltRp4473
(dp4474
g7
Nsg8
Nsbag2
(g3
g4
(ltRp4475
(dp4476
g7
Nsg8
Nsbag2
(g3
g4
(ltRp4477
(dp4478
g7
Nsg8
Nsbag2
(g3
g4
(ltRp4479
(dp4480
g7
Nsg8
Nsbag2
(g3
g4
(ltRp4481
(dp4482
g7
Nsg8
Nsbag2
(g3
g4
(ltRp4483
(dp4484
g7
Nsg8
Nsbag2
(g3
g4
(ltRp4485
(dp4486
g7
Nsg8
Nsbag2
(g3
g4
(ltRp4487
(dp4488
g7
Nsg8
Nsbag2
(g3
g4
(ltRp4489
(dp4490
g7
Nsg8
Nsbag2
(g3
g4
(ltRp4491
(dp4492
g7
Nsg8
Nsbag2
(g3
g4
(ltRp4493
(dp4494
g7
Nsg8
Nsbag2
(g3
g4
(ltRp4495
(dp4496
g7
Nsg8
Nsbag2
(g3
g4
(ltRp4497
(dp4498
g7
Nsg8
Nsbag2
(g3
g4
(ltRp4499
(dp4500
g7
Nsg8
Nsbag2
(g3
g4
(ltRp4501
(dp4502
g7
Nsg8
Nsbag2
(g3
g4
(ltRp4503
(dp4504
g7
Nsg8
Nsbag2
(g3
g4
(ltRp4505
(dp4506
g7
Nsg8
Nsbag2
(g3
g4
(ltRp4507
(dp4508
g7
Nsg8
Nsbag2
(g3
g4
(ltRp4509
(dp4510
g7
Nsg8
Nsbag2
(g3
g4
(ltRp4511
(dp4512
g7
Nsg8
Nsbag2
(g3
g4
(ltRp4513
(dp4514
g7
Nsg8
Nsbag2
(g3
g4
(ltRp4515
(dp4516
g7
Nsg8
Nsbag2
(g3
g4
(ltRp4517
(dp4518
g7
Nsg8
Nsbag2
(g3
g4
(ltRp4519
(dp4520
g7
Nsg8
Nsbag2
(g3
g4
(ltRp4521
(dp4522
g7
Nsg8
Nsbag2
(g3
g4
(ltRp4523
(dp4524
g7
Nsg8
Nsbag2
(g3
g4
(ltRp4525
(dp4526
g7
Nsg8
Nsbag2
(g3
g4
(ltRp4527
(dp4528
g7
Nsg8
Nsbag2
(g3
g4
(ltRp4529
(dp4530
g7
Nsg8
Nsbag2
(g3
g4
(ltRp4531
(dp4532
g7
Nsg8
Nsbag2
(g3
g4
(ltRp4533
(dp4534
g7
Nsg8
Nsbag2
(g3
g4
(ltRp4535
(dp4536
g7
Nsg8
Nsbag2
(g3
g4
(ltRp4537
(dp4538
g7
Nsg8
Nsbag2
(g3
g4
(ltRp4539
(dp4540
g7
Nsg8
Nsbag2
(g3
g4
(ltRp4541
(dp4542
g7
Nsg8
Nsbag2
(g3
g4
(ltRp4543
(dp4544
g7
Nsg8
Nsbag2
(g3
g4
(ltRp4545
(dp4546
g7
Nsg8
Nsbag2
(g3
g4
(ltRp4547
(dp4548
g7
Nsg8
Nsbag2
(g3
g4
(ltRp4549
(dp4550
g7
Nsg8
Nsbag2
(g3
g4
(ltRp4551
(dp4552
g7
Nsg8
Nsbag2
(g3
g4
(ltRp4553
(dp4554
g7
Nsg8
Nsbag2
(g3
g4
(ltRp4555
(dp4556
g7
Nsg8
Nsbag2
(g3
g4
(ltRp4557
(dp4558
g7
Nsg8
Nsbag2
(g3
g4
(ltRp4559
(dp4560
g7
Nsg8
Nsbag2
(g3
g4
(ltRp4561
(dp4562
g7
Nsg8
Nsbag2
(g3
g4
(ltRp4563
(dp4564
g7
Nsg8
Nsbag2
(g3
g4
(ltRp4565
(dp4566
g7
Nsg8
Nsbag2
(g3
g4
(ltRp4567
(dp4568
g7
Nsg8
Nsbag2
(g3
g4
(ltRp4569
(dp4570
g7
Nsg8
Nsbag2
(g3
g4
(ltRp4571
(dp4572
g7
Nsg8
Nsbag2
(g3
g4
(ltRp4573
(dp4574
g7
Nsg8
Nsbag2
(g3
g4
(ltRp4575
(dp4576
g7
Nsg8
Nsbag2
(g3
g4
(ltRp4577
(dp4578
g7
Nsg8
Nsbag2
(g3
g4
(ltRp4579
(dp4580
g7
Nsg8
Nsbag2
(g3
g4
(ltRp4581
(dp4582
g7
Nsg8
Nsbag2
(g3
g4
(ltRp4583
(dp4584
g7
Nsg8
Nsbag2
(g3
g4
(ltRp4585
(dp4586
g7
Nsg8
Nsbag2
(g3
g4
(ltRp4587
(dp4588
g7
Nsg8
Nsbag2
(g3
g4
(ltRp4589
(dp4590
g7
Nsg8
Nsbag2
(g3
g4
(ltRp4591
(dp4592
g7
Nsg8
Nsbag2
(g3
g4
(ltRp4593
(dp4594
g7
Nsg8
Nsbag2
(g3
g4
(ltRp4595
(dp4596
g7
Nsg8
Nsbag2
(g3
g4
(ltRp4597
(dp4598
g7
Nsg8
Nsbag2
(g3
g4
(ltRp4599
(dp4600
g7
Nsg8
Nsbag2
(g3
g4
(ltRp4601
(dp4602
g7
Nsg8
Nsbag2
(g3
g4
(ltRp4603
(dp4604
g7
Nsg8
Nsbag2
(g3
g4
(ltRp4605
(dp4606
g7
Nsg8
Nsbag2
(g3
g4
(ltRp4607
(dp4608
g7
Nsg8
Nsbag2
(g3
g4
(ltRp4609
(dp4610
g7
Nsg8
Nsbag2
(g3
g4
(ltRp4611
(dp4612
g7
Nsg8
Nsbag2
(g3
g4
(ltRp4613
(dp4614
g7
Nsg8
Nsbag2
(g3
g4
(ltRp4615
(dp4616
g7
Nsg8
Nsbag2
(g3
g4
(ltRp4617
(dp4618
g7
Nsg8
Nsbag2
(g3
g4
(ltRp4619
(dp4620
g7
Nsg8
Nsbag2
(g3
g4
(ltRp4621
(dp4622
g7
Nsg8
Nsbag2
(g3
g4
(ltRp4623
(dp4624
g7
Nsg8
Nsbag2
(g3
g4
(ltRp4625
(dp4626
g7
Nsg8
Nsbag2
(g3
g4
(ltRp4627
(dp4628
g7
Nsg8
Nsbag2
(g3
g4
(ltRp4629
(dp4630
g7
Nsg8
Nsbag2
(g3
g4
(ltRp4631
(dp4632
g7
Nsg8
Nsbag2
(g3
g4
(ltRp4633
(dp4634
g7
Nsg8
Nsbag2
(g3
g4
(ltRp4635
(dp4636
g7
Nsg8
Nsbag2
(g3
g4
(ltRp4637
(dp4638
g7
Nsg8
Nsbag2
(g3
g4
(ltRp4639
(dp4640
g7
Nsg8
Nsbag2
(g3
g4
(ltRp4641
(dp4642
g7
Nsg8
Nsbag2
(g3
g4
(ltRp4643
(dp4644
g7
Nsg8
Nsbag2
(g3
g4
(ltRp4645
(dp4646
g7
Nsg8
Nsbag2
(g3
g4
(ltRp4647
(dp4648
g7
Nsg8
Nsbag2
(g3
g4
(ltRp4649
(dp4650
g7
Nsg8
Nsbag2
(g3
g4
(ltRp4651
(dp4652
g7
Nsg8
Nsbag2
(g3
g4
(ltRp4653
(dp4654
g7
Nsg8
Nsbag2
(g3
g4
(ltRp4655
(dp4656
g7
Nsg8
Nsbag2
(g3
g4
(ltRp4657
(dp4658
g7
Nsg8
Nsbag2
(g3
g4
(ltRp4659
(dp4660
g7
Nsg8
Nsbag2
(g3
g4
(ltRp4661
(dp4662
g7
Nsg8
Nsbag2
(g3
g4
(ltRp4663
(dp4664
g7
Nsg8
Nsbag2
(g3
g4
(ltRp4665
(dp4666
g7
Nsg8
Nsbag2
(g3
g4
(ltRp4667
(dp4668
g7
Nsg8
Nsbag2
(g3
g4
(ltRp4669
(dp4670
g7
Nsg8
Nsbag2
(g3
g4
(ltRp4671
(dp4672
g7
Nsg8
Nsbag2
(g3
g4
(ltRp4673
(dp4674
g7
Nsg8
Nsbag2
(g3
g4
(ltRp4675
(dp4676
g7
Nsg8
Nsbag2
(g3
g4
(ltRp4677
(dp4678
g7
Nsg8
Nsbag2
(g3
g4
(ltRp4679
(dp4680
g7
Nsg8
Nsbag2
(g3
g4
(ltRp4681
(dp4682
g7
Nsg8
Nsbag2
(g3
g4
(ltRp4683
(dp4684
g7
Nsg8
Nsbag2
(g3
g4
(ltRp4685
(dp4686
g7
Nsg8
Nsbag2
(g3
g4
(ltRp4687
(dp4688
g7
Nsg8
Nsbag2
(g3
g4
(ltRp4689
(dp4690
g7
Nsg8
Nsbag2
(g3
g4
(ltRp4691
(dp4692
g7
Nsg8
Nsbag2
(g3
g4
(ltRp4693
(dp4694
g7
Nsg8
Nsbag2
(g3
g4
(ltRp4695
(dp4696
g7
Nsg8
Nsbag2
(g3
g4
(ltRp4697
(dp4698
g7
Nsg8
Nsbag2
(g3
g4
(ltRp4699
(dp4700
g7
Nsg8
Nsbag2
(g3
g4
(ltRp4701
(dp4702
g7
Nsg8
Nsbag2
(g3
g4
(ltRp4703
(dp4704
g7
Nsg8
Nsbag2
(g3
g4
(ltRp4705
(dp4706
g7
Nsg8
Nsbag2
(g3
g4
(ltRp4707
(dp4708
g7
Nsg8
Nsbag2
(g3
g4
(ltRp4709
(dp4710
g7
Nsg8
Nsbag2
(g3
g4
(ltRp4711
(dp4712
g7
Nsg8
Nsbag2
(g3
g4
(ltRp4713
(dp4714
g7
Nsg8
Nsbag2
(g3
g4
(ltRp4715
(dp4716
g7
Nsg8
Nsbag2
(g3
g4
(ltRp4717
(dp4718
g7
Nsg8
Nsbag2
(g3
g4
(ltRp4719
(dp4720
g7
Nsg8
Nsbag2
(g3
g4
(ltRp4721
(dp4722
g7
Nsg8
Nsbag2
(g3
g4
(ltRp4723
(dp4724
g7
Nsg8
Nsbag2
(g3
g4
(ltRp4725
(dp4726
g7
Nsg8
Nsbag2
(g3
g4
(ltRp4727
(dp4728
g7
Nsg8
Nsbag2
(g3
g4
(ltRp4729
(dp4730
g7
Nsg8
Nsbag2
(g3
g4
(ltRp4731
(dp4732
g7
Nsg8
Nsbag2
(g3
g4
(ltRp4733
(dp4734
g7
Nsg8
Nsbag2
(g3
g4
(ltRp4735
(dp4736
g7
Nsg8
Nsbag2
(g3
g4
(ltRp4737
(dp4738
g7
Nsg8
Nsbag2
(g3
g4
(ltRp4739
(dp4740
g7
Nsg8
Nsbag2
(g3
g4
(ltRp4741
(dp4742
g7
Nsg8
Nsbag2
(g3
g4
(ltRp4743
(dp4744
g7
Nsg8
Nsbag2
(g3
g4
(ltRp4745
(dp4746
g7
Nsg8
Nsbag2
(g3
g4
(ltRp4747
(dp4748
g7
Nsg8
Nsbag2
(g3
g4
(ltRp4749
(dp4750
g7
Nsg8
Nsbag2
(g3
g4
(ltRp4751
(dp4752
g7
Nsg8
Nsbag2
(g3
g4
(ltRp4753
(dp4754
g7
Nsg8
Nsbag2
(g3
g4
(ltRp4755
(dp4756
g7
Nsg8
Nsbag2
(g3
g4
(ltRp4757
(dp4758
g7
Nsg8
Nsbag2
(g3
g4
(ltRp4759
(dp4760
g7
Nsg8
Nsbag2
(g3
g4
(ltRp4761
(dp4762
g7
Nsg8
Nsbag2
(g3
g4
(ltRp4763
(dp4764
g7
Nsg8
Nsbag2
(g3
g4
(ltRp4765
(dp4766
g7
Nsg8
Nsbag2
(g3
g4
(ltRp4767
(dp4768
g7
Nsg8
Nsbag2
(g3
g4
(ltRp4769
(dp4770
g7
Nsg8
Nsbag2
(g3
g4
(ltRp4771
(dp4772
g7
Nsg8
Nsbag2
(g3
g4
(ltRp4773
(dp4774
g7
Nsg8
Nsbag2
(g3
g4
(ltRp4775
(dp4776
g7
Nsg8
Nsbag2
(g3
g4
(ltRp4777
(dp4778
g7
Nsg8
Nsbag2
(g3
g4
(ltRp4779
(dp4780
g7
Nsg8
Nsbag2
(g3
g4
(ltRp4781
(dp4782
g7
Nsg8
Nsbag2
(g3
g4
(ltRp4783
(dp4784
g7
Nsg8
Nsbag2
(g3
g4
(ltRp4785
(dp4786
g7
Nsg8
Nsbag2
(g3
g4
(ltRp4787
(dp4788
g7
Nsg8
Nsbag2
(g3
g4
(ltRp4789
(dp4790
g7
Nsg8
Nsbag2
(g3
g4
(ltRp4791
(dp4792
g7
Nsg8
Nsbag2
(g3
g4
(ltRp4793
(dp4794
g7
Nsg8
Nsbag2
(g3
g4
(ltRp4795
(dp4796
g7
Nsg8
Nsbag2
(g3
g4
(ltRp4797
(dp4798
g7
Nsg8
Nsbag2
(g3
g4
(ltRp4799
(dp4800
g7
Nsg8
Nsbag2
(g3
g4
(ltRp4801
(dp4802
g7
Nsg8
Nsbag2
(g3
g4
(ltRp4803
(dp4804
g7
Nsg8
Nsbag2
(g3
g4
(ltRp4805
(dp4806
g7
Nsg8
Nsbag2
(g3
g4
(ltRp4807
(dp4808
g7
Nsg8
Nsbag2
(g3
g4
(ltRp4809
(dp4810
g7
Nsg8
Nsbag2
(g3
g4
(ltRp4811
(dp4812
g7
Nsg8
Nsbag2
(g3
g4
(ltRp4813
(dp4814
g7
Nsg8
Nsbag2
(g3
g4
(ltRp4815
(dp4816
g7
Nsg8
Nsbag2
(g3
g4
(ltRp4817
(dp4818
g7
Nsg8
Nsbag2
(g3
g4
(ltRp4819
(dp4820
g7
Nsg8
Nsbag2
(g3
g4
(ltRp4821
(dp4822
g7
Nsg8
Nsbag2
(g3
g4
(ltRp4823
(dp4824
g7
Nsg8
Nsbag2
(g3
g4
(ltRp4825
(dp4826
g7
Nsg8
Nsbag2
(g3
g4
(ltRp4827
(dp4828
g7
Nsg8
Nsbag2
(g3
g4
(ltRp4829
(dp4830
g7
Nsg8
Nsbag2
(g3
g4
(ltRp4831
(dp4832
g7
Nsg8
Nsbag2
(g3
g4
(ltRp4833
(dp4834
g7
Nsg8
Nsbag2
(g3
g4
(ltRp4835
(dp4836
g7
Nsg8
Nsbag2
(g3
g4
(ltRp4837
(dp4838
g7
Nsg8
Nsbag2
(g3
g4
(ltRp4839
(dp4840
g7
Nsg8
Nsbag2
(g3
g4
(ltRp4841
(dp4842
g7
Nsg8
Nsbag2
(g3
g4
(ltRp4843
(dp4844
g7
Nsg8
Nsbag2
(g3
g4
(ltRp4845
(dp4846
g7
Nsg8
Nsbag2
(g3
g4
(ltRp4847
(dp4848
g7
Nsg8
Nsbag2
(g3
g4
(ltRp4849
(dp4850
g7
Nsg8
Nsbag2
(g3
g4
(ltRp4851
(dp4852
g7
Nsg8
Nsbag2
(g3
g4
(ltRp4853
(dp4854
g7
Nsg8
Nsbag2
(g3
g4
(ltRp4855
(dp4856
g7
Nsg8
Nsbag2
(g3
g4
(ltRp4857
(dp4858
g7
Nsg8
Nsbag2
(g3
g4
(ltRp4859
(dp4860
g7
Nsg8
Nsbag2
(g3
g4
(ltRp4861
(dp4862
g7
Nsg8
Nsbag2
(g3
g4
(ltRp4863
(dp4864
g7
Nsg8
Nsbag2
(g3
g4
(ltRp4865
(dp4866
g7
Nsg8
Nsbag2
(g3
g4
(ltRp4867
(dp4868
g7
Nsg8
Nsbag2
(g3
g4
(ltRp4869
(dp4870
g7
Nsg8
Nsbag2
(g3
g4
(ltRp4871
(dp4872
g7
Nsg8
Nsbag2
(g3
g4
(ltRp4873
(dp4874
g7
Nsg8
Nsbag2
(g3
g4
(ltRp4875
(dp4876
g7
Nsg8
Nsbag2
(g3
g4
(ltRp4877
(dp4878
g7
Nsg8
Nsbag2
(g3
g4
(ltRp4879
(dp4880
g7
Nsg8
Nsbag2
(g3
g4
(ltRp4881
(dp4882
g7
Nsg8
Nsbag2
(g3
g4
(ltRp4883
(dp4884
g7
Nsg8
Nsbag2
(g3
g4
(ltRp4885
(dp4886
g7
Nsg8
Nsbag2
(g3
g4
(ltRp4887
(dp4888
g7
Nsg8
Nsbag2
(g3
g4
(ltRp4889
(dp4890
g7
Nsg8
Nsbag2
(g3
g4
(ltRp4891
(dp4892
g7
Nsg8
Nsbag2
(g3
g4
(ltRp4893
(dp4894
g7
Nsg8
Nsbag2
(g3
g4
(ltRp4895
(dp4896
g7
Nsg8
Nsbag2
(g3
g4
(ltRp4897
(dp4898
g7
Nsg8
Nsbag2
(g3
g4
(ltRp4899
(dp4900
g7
Nsg8
Nsbag2
(g3
g4
(ltRp4901
(dp4902
g7
Nsg8
Nsbag2
(g3
g4
(ltRp4903
(dp4904
g7
Nsg8
Nsbag2
(g3
g4
(ltRp4905
(dp4906
g7
Nsg8
Nsbag2
(g3
g4
(ltRp4907
(dp4908
g7
Nsg8
Nsbag2
(g3
g4
(ltRp4909
(dp4910
g7
Nsg8
Nsbag2
(g3
g4
(ltRp4911
(dp4912
g7
Nsg8
Nsbag2
(g3
g4
(ltRp4913
(dp4914
g7
Nsg8
Nsbag2
(g3
g4
(ltRp4915
(dp4916
g7
Nsg8
Nsbag2
(g3
g4
(ltRp4917
(dp4918
g7
Nsg8
Nsbag2
(g3
g4
(ltRp4919
(dp4920
g7
Nsg8
Nsbag2
(g3
g4
(ltRp4921
(dp4922
g7
Nsg8
Nsbag2
(g3
g4
(ltRp4923
(dp4924
g7
Nsg8
Nsbag2
(g3
g4
(ltRp4925
(dp4926
g7
Nsg8
Nsbag2
(g3
g4
(ltRp4927
(dp4928
g7
Nsg8
Nsbag2
(g3
g4
(ltRp4929
(dp4930
g7
Nsg8
Nsbag2
(g3
g4
(ltRp4931
(dp4932
g7
Nsg8
Nsbag2
(g3
g4
(ltRp4933
(dp4934
g7
Nsg8
Nsbag2
(g3
g4
(ltRp4935
(dp4936
g7
Nsg8
Nsbag2
(g3
g4
(ltRp4937
(dp4938
g7
Nsg8
Nsbag2
(g3
g4
(ltRp4939
(dp4940
g7
Nsg8
Nsbag2
(g3
g4
(ltRp4941
(dp4942
g7
Nsg8
Nsbag2
(g3
g4
(ltRp4943
(dp4944
g7
Nsg8
Nsbag2
(g3
g4
(ltRp4945
(dp4946
g7
Nsg8
Nsbag2
(g3
g4
(ltRp4947
(dp4948
g7
Nsg8
Nsbag2
(g3
g4
(ltRp4949
(dp4950
g7
Nsg8
Nsbag2
(g3
g4
(ltRp4951
(dp4952
g7
Nsg8
Nsbag2
(g3
g4
(ltRp4953
(dp4954
g7
Nsg8
Nsbag2
(g3
g4
(ltRp4955
(dp4956
g7
Nsg8
Nsbag2
(g3
g4
(ltRp4957
(dp4958
g7
Nsg8
Nsbag2
(g3
g4
(ltRp4959
(dp4960
g7
Nsg8
Nsbag2
(g3
g4
(ltRp4961
(dp4962
g7
Nsg8
Nsbag2
(g3
g4
(ltRp4963
(dp4964
g7
Nsg8
Nsbag2
(g3
g4
(ltRp4965
(dp4966
g7
Nsg8
Nsbag2
(g3
g4
(ltRp4967
(dp4968
g7
Nsg8
Nsbag2
(g3
g4
(ltRp4969
(dp4970
g7
Nsg8
Nsbag2
(g3
g4
(ltRp4971
(dp4972
g7
Nsg8
Nsbag2
(g3
g4
(ltRp4973
(dp4974
g7
Nsg8
Nsbag2
(g3
g4
(ltRp4975
(dp4976
g7
Nsg8
Nsbag2
(g3
g4
(ltRp4977
(dp4978
g7
Nsg8
Nsbag2
(g3
g4
(ltRp4979
(dp4980
g7
Nsg8
Nsbag2
(g3
g4
(ltRp4981
(dp4982
g7
Nsg8
Nsbag2
(g3
g4
(ltRp4983
(dp4984
g7
Nsg8
Nsbag2
(g3
g4
(ltRp4985
(dp4986
g7
Nsg8
Nsbag2
(g3
g4
(ltRp4987
(dp4988
g7
Nsg8
Nsbag2
(g3
g4
(ltRp4989
(dp4990
g7
Nsg8
Nsbag2
(g3
g4
(ltRp4991
(dp4992
g7
Nsg8
Nsbag2
(g3
g4
(ltRp4993
(dp4994
g7
Nsg8
Nsbag2
(g3
g4
(ltRp4995
(dp4996
g7
Nsg8
Nsbag2
(g3
g4
(ltRp4997
(dp4998
g7
Nsg8
Nsbag2
(g3
g4
(ltRp4999
(dp5000
g7
Nsg8
Nsbag2
(g3
g4
(ltRp5001
(dp5002
g7
Nsg8
Nsbag2
(g3
g4
(ltRp5003
(dp5004
g7
Nsg8
Nsbag2
(g3
g4
(ltRp5005
(dp5006
g7
Nsg8
Nsbag2
(g3
g4
(ltRp5007
(dp5008
g7
Nsg8
Nsbag2
(g3
g4
(ltRp5009
(dp5010
g7
Nsg8
Nsbag2
(g3
g4
(ltRp5011
(dp5012
g7
Nsg8
Nsbag2
(g3
g4
(ltRp5013
(dp5014
g7
Nsg8
Nsbag2
(g3
g4
(ltRp5015
(dp5016
g7
Nsg8
Nsbag2
(g3
g4
(ltRp5017
(dp5018
g7
Nsg8
Nsbag2
(g3
g4
(ltRp5019
(dp5020
g7
Nsg8
Nsbag2
(g3
g4
(ltRp5021
(dp5022
g7
Nsg8
Nsbag2
(g3
g4
(ltRp5023
(dp5024
g7
Nsg8
Nsbag2
(g3
g4
(ltRp5025
(dp5026
g7
Nsg8
Nsbag2
(g3
g4
(ltRp5027
(dp5028
g7
Nsg8
Nsbag2
(g3
g4
(ltRp5029
(dp5030
g7
Nsg8
Nsbag2
(g3
g4
(ltRp5031
(dp5032
g7
Nsg8
Nsbag2
(g3
g4
(ltRp5033
(dp5034
g7
Nsg8
Nsbag2
(g3
g4
(ltRp5035
(dp5036
g7
Nsg8
Nsbag2
(g3
g4
(ltRp5037
(dp5038
g7
Nsg8
Nsbag2
(g3
g4
(ltRp5039
(dp5040
g7
Nsg8
Nsbag2
(g3
g4
(ltRp5041
(dp5042
g7
Nsg8
Nsbag2
(g3
g4
(ltRp5043
(dp5044
g7
Nsg8
Nsbag2
(g3
g4
(ltRp5045
(dp5046
g7
Nsg8
Nsbag2
(g3
g4
(ltRp5047
(dp5048
g7
Nsg8
Nsbag2
(g3
g4
(ltRp5049
(dp5050
g7
Nsg8
Nsbag2
(g3
g4
(ltRp5051
(dp5052
g7
Nsg8
Nsbag2
(g3
g4
(ltRp5053
(dp5054
g7
Nsg8
Nsbag2
(g3
g4
(ltRp5055
(dp5056
g7
Nsg8
Nsbag2
(g3
g4
(ltRp5057
(dp5058
g7
Nsg8
Nsbag2
(g3
g4
(ltRp5059
(dp5060
g7
Nsg8
Nsbag2
(g3
g4
(ltRp5061
(dp5062
g7
Nsg8
Nsbag2
(g3
g4
(ltRp5063
(dp5064
g7
Nsg8
Nsbag2
(g3
g4
(ltRp5065
(dp5066
g7
Nsg8
Nsbag2
(g3
g4
(ltRp5067
(dp5068
g7
Nsg8
Nsbag2
(g3
g4
(ltRp5069
(dp5070
g7
Nsg8
Nsbag2
(g3
g4
(ltRp5071
(dp5072
g7
Nsg8
Nsbag2
(g3
g4
(ltRp5073
(dp5074
g7
Nsg8
Nsbag2
(g3
g4
(ltRp5075
(dp5076
g7
Nsg8
Nsbag2
(g3
g4
(ltRp5077
(dp5078
g7
Nsg8
Nsbag2
(g3
g4
(ltRp5079
(dp5080
g7
Nsg8
Nsbag2
(g3
g4
(ltRp5081
(dp5082
g7
Nsg8
Nsbag2
(g3
g4
(ltRp5083
(dp5084
g7
Nsg8
Nsbag2
(g3
g4
(ltRp5085
(dp5086
g7
Nsg8
Nsbag2
(g3
g4
(ltRp5087
(dp5088
g7
Nsg8
Nsbag2
(g3
g4
(ltRp5089
(dp5090
g7
Nsg8
Nsbag2
(g3
g4
(ltRp5091
(dp5092
g7
Nsg8
Nsbag2
(g3
g4
(ltRp5093
(dp5094
g7
Nsg8
Nsbag2
(g3
g4
(ltRp5095
(dp5096
g7
Nsg8
Nsbag2
(g3
g4
(ltRp5097
(dp5098
g7
Nsg8
Nsbag2
(g3
g4
(ltRp5099
(dp5100
g7
Nsg8
Nsbag2
(g3
g4
(ltRp5101
(dp5102
g7
Nsg8
Nsbag2
(g3
g4
(ltRp5103
(dp5104
g7
Nsg8
Nsbag2
(g3
g4
(ltRp5105
(dp5106
g7
Nsg8
Nsbag2
(g3
g4
(ltRp5107
(dp5108
g7
Nsg8
Nsbag2
(g3
g4
(ltRp5109
(dp5110
g7
Nsg8
Nsbag2
(g3
g4
(ltRp5111
(dp5112
g7
Nsg8
Nsbag2
(g3
g4
(ltRp5113
(dp5114
g7
Nsg8
Nsbag2
(g3
g4
(ltRp5115
(dp5116
g7
Nsg8
Nsbag2
(g3
g4
(ltRp5117
(dp5118
g7
Nsg8
Nsbag2
(g3
g4
(ltRp5119
(dp5120
g7
Nsg8
Nsbag2
(g3
g4
(ltRp5121
(dp5122
g7
Nsg8
Nsbag2
(g3
g4
(ltRp5123
(dp5124
g7
Nsg8
Nsbag2
(g3
g4
(ltRp5125
(dp5126
g7
Nsg8
Nsbag2
(g3
g4
(ltRp5127
(dp5128
g7
Nsg8
Nsbag2
(g3
g4
(ltRp5129
(dp5130
g7
Nsg8
Nsbag2
(g3
g4
(ltRp5131
(dp5132
g7
Nsg8
Nsbag2
(g3
g4
(ltRp5133
(dp5134
g7
Nsg8
Nsbag2
(g3
g4
(ltRp5135
(dp5136
g7
Nsg8
Nsbag2
(g3
g4
(ltRp5137
(dp5138
g7
Nsg8
Nsbag2
(g3
g4
(ltRp5139
(dp5140
g7
Nsg8
Nsbag2
(g3
g4
(ltRp5141
(dp5142
g7
Nsg8
Nsbag2
(g3
g4
(ltRp5143
(dp5144
g7
Nsg8
Nsbag2
(g3
g4
(ltRp5145
(dp5146
g7
Nsg8
Nsbag2
(g3
g4
(ltRp5147
(dp5148
g7
Nsg8
Nsbag2
(g3
g4
(ltRp5149
(dp5150
g7
Nsg8
Nsbag2
(g3
g4
(ltRp5151
(dp5152
g7
Nsg8
Nsbag2
(g3
g4
(ltRp5153
(dp5154
g7
Nsg8
Nsbag2
(g3
g4
(ltRp5155
(dp5156
g7
Nsg8
Nsbag2
(g3
g4
(ltRp5157
(dp5158
g7
Nsg8
Nsbag2
(g3
g4
(ltRp5159
(dp5160
g7
Nsg8
Nsbag2
(g3
g4
(ltRp5161
(dp5162
g7
Nsg8
Nsbag2
(g3
g4
(ltRp5163
(dp5164
g7
Nsg8
Nsbag2
(g3
g4
(ltRp5165
(dp5166
g7
Nsg8
Nsbag2
(g3
g4
(ltRp5167
(dp5168
g7
Nsg8
Nsbag2
(g3
g4
(ltRp5169
(dp5170
g7
Nsg8
Nsbag2
(g3
g4
(ltRp5171
(dp5172
g7
Nsg8
Nsbag2
(g3
g4
(ltRp5173
(dp5174
g7
Nsg8
Nsbag2
(g3
g4
(ltRp5175
(dp5176
g7
Nsg8
Nsbag2
(g3
g4
(ltRp5177
(dp5178
g7
Nsg8
Nsbag2
(g3
g4
(ltRp5179
(dp5180
g7
Nsg8
Nsbag2
(g3
g4
(ltRp5181
(dp5182
g7
Nsg8
Nsbag2
(g3
g4
(ltRp5183
(dp5184
g7
Nsg8
Nsbag2
(g3
g4
(ltRp5185
(dp5186
g7
Nsg8
Nsbag2
(g3
g4
(ltRp5187
(dp5188
g7
Nsg8
Nsbag2
(g3
g4
(ltRp5189
(dp5190
g7
Nsg8
Nsbag2
(g3
g4
(ltRp5191
(dp5192
g7
Nsg8
Nsbag2
(g3
g4
(ltRp5193
(dp5194
g7
Nsg8
Nsbag2
(g3
g4
(ltRp5195
(dp5196
g7
Nsg8
Nsbag2
(g3
g4
(ltRp5197
(dp5198
g7
Nsg8
Nsbag2
(g3
g4
(ltRp5199
(dp5200
g7
Nsg8
Nsbag2
(g3
g4
(ltRp5201
(dp5202
g7
Nsg8
Nsbag2
(g3
g4
(ltRp5203
(dp5204
g7
Nsg8
Nsbag2
(g3
g4
(ltRp5205
(dp5206
g7
Nsg8
Nsbag2
(g3
g4
(ltRp5207
(dp5208
g7
Nsg8
Nsbag2
(g3
g4
(ltRp5209
(dp5210
g7
Nsg8
Nsbag2
(g3
g4
(ltRp5211
(dp5212
g7
Nsg8
Nsbag2
(g3
g4
(ltRp5213
(dp5214
g7
Nsg8
Nsbag2
(g3
g4
(ltRp5215
(dp5216
g7
Nsg8
Nsbag2
(g3
g4
(ltRp5217
(dp5218
g7
Nsg8
Nsbag2
(g3
g4
(ltRp5219
(dp5220
g7
Nsg8
Nsbag2
(g3
g4
(ltRp5221
(dp5222
g7
Nsg8
Nsbag2
(g3
g4
(ltRp5223
(dp5224
g7
Nsg8
Nsbag2
(g3
g4
(ltRp5225
(dp5226
g7
Nsg8
Nsbag2
(g3
g4
(ltRp5227
(dp5228
g7
Nsg8
Nsbag2
(g3
g4
(ltRp5229
(dp5230
g7
Nsg8
Nsbag2
(g3
g4
(ltRp5231
(dp5232
g7
Nsg8
Nsbag2
(g3
g4
(ltRp5233
(dp5234
g7
Nsg8
Nsbag2
(g3
g4
(ltRp5235
(dp5236
g7
Nsg8
Nsbag2
(g3
g4
(ltRp5237
(dp5238
g7
Nsg8
Nsbag2
(g3
g4
(ltRp5239
(dp5240
g7
Nsg8
Nsbag2
(g3
g4
(ltRp5241
(dp5242
g7
Nsg8
Nsbag2
(g3
g4
(ltRp5243
(dp5244
g7
Nsg8
Nsbag2
(g3
g4
(ltRp5245
(dp5246
g7
Nsg8
Nsbag2
(g3
g4
(ltRp5247
(dp5248
g7
Nsg8
Nsbag2
(g3
g4
(ltRp5249
(dp5250
g7
Nsg8
Nsbag2
(g3
g4
(ltRp5251
(dp5252
g7
Nsg8
Nsbag2
(g3
g4
(ltRp5253
(dp5254
g7
Nsg8
Nsbag2
(g3
g4
(ltRp5255
(dp5256
g7
Nsg8
Nsbag2
(g3
g4
(ltRp5257
(dp5258
g7
Nsg8
Nsbag2
(g3
g4
(ltRp5259
(dp5260
g7
Nsg8
Nsbag2
(g3
g4
(ltRp5261
(dp5262
g7
Nsg8
Nsbag2
(g3
g4
(ltRp5263
(dp5264
g7
Nsg8
Nsbag2
(g3
g4
(ltRp5265
(dp5266
g7
Nsg8
Nsbag2
(g3
g4
(ltRp5267
(dp5268
g7
Nsg8
Nsbag2
(g3
g4
(ltRp5269
(dp5270
g7
Nsg8
Nsbag2
(g3
g4
(ltRp5271
(dp5272
g7
Nsg8
Nsbag2
(g3
g4
(ltRp5273
(dp5274
g7
Nsg8
Nsbag2
(g3
g4
(ltRp5275
(dp5276
g7
Nsg8
Nsbag2
(g3
g4
(ltRp5277
(dp5278
g7
Nsg8
Nsbag2
(g3
g4
(ltRp5279
(dp5280
g7
Nsg8
Nsbag2
(g3
g4
(ltRp5281
(dp5282
g7
Nsg8
Nsbag2
(g3
g4
(ltRp5283
(dp5284
g7
Nsg8
Nsbag2
(g3
g4
(ltRp5285
(dp5286
g7
Nsg8
Nsbag2
(g3
g4
(ltRp5287
(dp5288
g7
Nsg8
Nsbag2
(g3
g4
(ltRp5289
(dp5290
g7
Nsg8
Nsbag2
(g3
g4
(ltRp5291
(dp5292
g7
Nsg8
Nsbag2
(g3
g4
(ltRp5293
(dp5294
g7
Nsg8
Nsbag2
(g3
g4
(ltRp5295
(dp5296
g7
Nsg8
Nsbag2
(g3
g4
(ltRp5297
(dp5298
g7
Nsg8
Nsbag2
(g3
g4
(ltRp5299
(dp5300
g7
Nsg8
Nsbag2
(g3
g4
(ltRp5301
(dp5302
g7
Nsg8
Nsbag2
(g3
g4
(ltRp5303
(dp5304
g7
Nsg8
Nsbag2
(g3
g4
(ltRp5305
(dp5306
g7
Nsg8
Nsbag2
(g3
g4
(ltRp5307
(dp5308
g7
Nsg8
Nsbag2
(g3
g4
(ltRp5309
(dp5310
g7
Nsg8
Nsbag2
(g3
g4
(ltRp5311
(dp5312
g7
Nsg8
Nsbag2
(g3
g4
(ltRp5313
(dp5314
g7
Nsg8
Nsbag2
(g3
g4
(ltRp5315
(dp5316
g7
Nsg8
Nsbag2
(g3
g4
(ltRp5317
(dp5318
g7
Nsg8
Nsbag2
(g3
g4
(ltRp5319
(dp5320
g7
Nsg8
Nsbag2
(g3
g4
(ltRp5321
(dp5322
g7
Nsg8
Nsbag2
(g3
g4
(ltRp5323
(dp5324
g7
Nsg8
Nsbag2
(g3
g4
(ltRp5325
(dp5326
g7
Nsg8
Nsbag2
(g3
g4
(ltRp5327
(dp5328
g7
Nsg8
Nsbag2
(g3
g4
(ltRp5329
(dp5330
g7
Nsg8
Nsbag2
(g3
g4
(ltRp5331
(dp5332
g7
Nsg8
Nsbag2
(g3
g4
(ltRp5333
(dp5334
g7
Nsg8
Nsbag2
(g3
g4
(ltRp5335
(dp5336
g7
Nsg8
Nsbag2
(g3
g4
(ltRp5337
(dp5338
g7
Nsg8
Nsbag2
(g3
g4
(ltRp5339
(dp5340
g7
Nsg8
Nsbag2
(g3
g4
(ltRp5341
(dp5342
g7
Nsg8
Nsbag2
(g3
g4
(ltRp5343
(dp5344
g7
Nsg8
Nsbag2
(g3
g4
(ltRp5345
(dp5346
g7
Nsg8
Nsbag2
(g3
g4
(ltRp5347
(dp5348
g7
Nsg8
Nsbag2
(g3
g4
(ltRp5349
(dp5350
g7
Nsg8
Nsbag2
(g3
g4
(ltRp5351
(dp5352
g7
Nsg8
Nsbag2
(g3
g4
(ltRp5353
(dp5354
g7
Nsg8
Nsbag2
(g3
g4
(ltRp5355
(dp5356
g7
Nsg8
Nsbag2
(g3
g4
(ltRp5357
(dp5358
g7
Nsg8
Nsbag2
(g3
g4
(ltRp5359
(dp5360
g7
Nsg8
Nsbag2
(g3
g4
(ltRp5361
(dp5362
g7
Nsg8
Nsbag2
(g3
g4
(ltRp5363
(dp5364
g7
Nsg8
Nsbag2
(g3
g4
(ltRp5365
(dp5366
g7
Nsg8
Nsbag2
(g3
g4
(ltRp5367
(dp5368
g7
Nsg8
Nsbag2
(g3
g4
(ltRp5369
(dp5370
g7
Nsg8
Nsbag2
(g3
g4
(ltRp5371
(dp5372
g7
Nsg8
Nsbag2
(g3
g4
(ltRp5373
(dp5374
g7
Nsg8
Nsbag2
(g3
g4
(ltRp5375
(dp5376
g7
Nsg8
Nsbag2
(g3
g4
(ltRp5377
(dp5378
g7
Nsg8
Nsbag2
(g3
g4
(ltRp5379
(dp5380
g7
Nsg8
Nsbag2
(g3
g4
(ltRp5381
(dp5382
g7
Nsg8
Nsbag2
(g3
g4
(ltRp5383
(dp5384
g7
Nsg8
Nsbag2
(g3
g4
(ltRp5385
(dp5386
g7
Nsg8
Nsbag2
(g3
g4
(ltRp5387
(dp5388
g7
Nsg8
Nsbag2
(g3
g4
(ltRp5389
(dp5390
g7
Nsg8
Nsbag2
(g3
g4
(ltRp5391
(dp5392
g7
Nsg8
Nsbag2
(g3
g4
(ltRp5393
(dp5394
g7
Nsg8
Nsbag2
(g3
g4
(ltRp5395
(dp5396
g7
Nsg8
Nsbag2
(g3
g4
(ltRp5397
(dp5398
g7
Nsg8
Nsbag2
(g3
g4
(ltRp5399
(dp5400
g7
Nsg8
Nsbag2
(g3
g4
(ltRp5401
(dp5402
g7
Nsg8
Nsbag2
(g3
g4
(ltRp5403
(dp5404
g7
Nsg8
Nsbag2
(g3
g4
(ltRp5405
(dp5406
g7
Nsg8
Nsbag2
(g3
g4
(ltRp5407
(dp5408
g7
Nsg8
Nsbag2
(g3
g4
(ltRp5409
(dp5410
g7
Nsg8
Nsbag2
(g3
g4
(ltRp5411
(dp5412
g7
Nsg8
Nsbag2
(g3
g4
(ltRp5413
(dp5414
g7
Nsg8
Nsbag2
(g3
g4
(ltRp5415
(dp5416
g7
Nsg8
Nsbag2
(g3
g4
(ltRp5417
(dp5418
g7
Nsg8
Nsbag2
(g3
g4
(ltRp5419
(dp5420
g7
Nsg8
Nsbag2
(g3
g4
(ltRp5421
(dp5422
g7
Nsg8
Nsbag2
(g3
g4
(ltRp5423
(dp5424
g7
Nsg8
Nsbag2
(g3
g4
(ltRp5425
(dp5426
g7
Nsg8
Nsbag2
(g3
g4
(ltRp5427
(dp5428
g7
Nsg8
Nsbag2
(g3
g4
(ltRp5429
(dp5430
g7
Nsg8
Nsbag2
(g3
g4
(ltRp5431
(dp5432
g7
Nsg8
Nsbag2
(g3
g4
(ltRp5433
(dp5434
g7
Nsg8
Nsbag2
(g3
g4
(ltRp5435
(dp5436
g7
Nsg8
Nsbag2
(g3
g4
(ltRp5437
(dp5438
g7
Nsg8
Nsbag2
(g3
g4
(ltRp5439
(dp5440
g7
Nsg8
Nsbag2
(g3
g4
(ltRp5441
(dp5442
g7
Nsg8
Nsbag2
(g3
g4
(ltRp5443
(dp5444
g7
Nsg8
Nsbag2
(g3
g4
(ltRp5445
(dp5446
g7
Nsg8
Nsbag2
(g3
g4
(ltRp5447
(dp5448
g7
Nsg8
Nsbag2
(g3
g4
(ltRp5449
(dp5450
g7
Nsg8
Nsbag2
(g3
g4
(ltRp5451
(dp5452
g7
Nsg8
Nsbag2
(g3
g4
(ltRp5453
(dp5454
g7
Nsg8
Nsbag2
(g3
g4
(ltRp5455
(dp5456
g7
Nsg8
Nsbag2
(g3
g4
(ltRp5457
(dp5458
g7
Nsg8
Nsbag2
(g3
g4
(ltRp5459
(dp5460
g7
Nsg8
Nsbag2
(g3
g4
(ltRp5461
(dp5462
g7
Nsg8
Nsbag2
(g3
g4
(ltRp5463
(dp5464
g7
Nsg8
Nsbag2
(g3
g4
(ltRp5465
(dp5466
g7
Nsg8
Nsbag2
(g3
g4
(ltRp5467
(dp5468
g7
Nsg8
Nsbag2
(g3
g4
(ltRp5469
(dp5470
g7
Nsg8
Nsbag2
(g3
g4
(ltRp5471
(dp5472
g7
Nsg8
Nsbag2
(g3
g4
(ltRp5473
(dp5474
g7
Nsg8
Nsbag2
(g3
g4
(ltRp5475
(dp5476
g7
Nsg8
Nsbag2
(g3
g4
(ltRp5477
(dp5478
g7
Nsg8
Nsbag2
(g3
g4
(ltRp5479
(dp5480
g7
Nsg8
Nsbag2
(g3
g4
(ltRp5481
(dp5482
g7
Nsg8
Nsbag2
(g3
g4
(ltRp5483
(dp5484
g7
Nsg8
Nsbag2
(g3
g4
(ltRp5485
(dp5486
g7
Nsg8
Nsbag2
(g3
g4
(ltRp5487
(dp5488
g7
Nsg8
Nsbag2
(g3
g4
(ltRp5489
(dp5490
g7
Nsg8
Nsbag2
(g3
g4
(ltRp5491
(dp5492
g7
Nsg8
Nsbag2
(g3
g4
(ltRp5493
(dp5494
g7
Nsg8
Nsbag2
(g3
g4
(ltRp5495
(dp5496
g7
Nsg8
Nsbag2
(g3
g4
(ltRp5497
(dp5498
g7
Nsg8
Nsbag2
(g3
g4
(ltRp5499
(dp5500
g7
Nsg8
Nsbag2
(g3
g4
(ltRp5501
(dp5502
g7
Nsg8
Nsbag2
(g3
g4
(ltRp5503
(dp5504
g7
Nsg8
Nsbag2
(g3
g4
(ltRp5505
(dp5506
g7
Nsg8
Nsbag2
(g3
g4
(ltRp5507
(dp5508
g7
Nsg8
Nsbag2
(g3
g4
(ltRp5509
(dp5510
g7
Nsg8
Nsbag2
(g3
g4
(ltRp5511
(dp5512
g7
Nsg8
Nsbag2
(g3
g4
(ltRp5513
(dp5514
g7
Nsg8
Nsbag2
(g3
g4
(ltRp5515
(dp5516
g7
Nsg8
Nsbag2
(g3
g4
(ltRp5517
(dp5518
g7
Nsg8
Nsbag2
(g3
g4
(ltRp5519
(dp5520
g7
Nsg8
Nsbag2
(g3
g4
(ltRp5521
(dp5522
g7
Nsg8
Nsbag2
(g3
g4
(ltRp5523
(dp5524
g7
Nsg8
Nsbag2
(g3
g4
(ltRp5525
(dp5526
g7
Nsg8
Nsbag2
(g3
g4
(ltRp5527
(dp5528
g7
Nsg8
Nsbag2
(g3
g4
(ltRp5529
(dp5530
g7
Nsg8
Nsbag2
(g3
g4
(ltRp5531
(dp5532
g7
Nsg8
Nsbag2
(g3
g4
(ltRp5533
(dp5534
g7
Nsg8
Nsbag2
(g3
g4
(ltRp5535
(dp5536
g7
Nsg8
Nsbag2
(g3
g4
(ltRp5537
(dp5538
g7
Nsg8
Nsbag2
(g3
g4
(ltRp5539
(dp5540
g7
Nsg8
Nsbag2
(g3
g4
(ltRp5541
(dp5542
g7
Nsg8
Nsbag2
(g3
g4
(ltRp5543
(dp5544
g7
Nsg8
Nsbag2
(g3
g4
(ltRp5545
(dp5546
g7
Nsg8
Nsbag2
(g3
g4
(ltRp5547
(dp5548
g7
Nsg8
Nsbag2
(g3
g4
(ltRp5549
(dp5550
g7
Nsg8
Nsbag2
(g3
g4
(ltRp5551
(dp5552
g7
Nsg8
Nsbag2
(g3
g4
(ltRp5553
(dp5554
g7
Nsg8
Nsbag2
(g3
g4
(ltRp5555
(dp5556
g7
Nsg8
Nsbag2
(g3
g4
(ltRp5557
(dp5558
g7
Nsg8
Nsbag2
(g3
g4
(ltRp5559
(dp5560
g7
Nsg8
Nsbag2
(g3
g4
(ltRp5561
(dp5562
g7
Nsg8
Nsbag2
(g3
g4
(ltRp5563
(dp5564
g7
Nsg8
Nsbag2
(g3
g4
(ltRp5565
(dp5566
g7
Nsg8
Nsbag2
(g3
g4
(ltRp5567
(dp5568
g7
Nsg8
Nsbag2
(g3
g4
(ltRp5569
(dp5570
g7
Nsg8
Nsbag2
(g3
g4
(ltRp5571
(dp5572
g7
Nsg8
Nsbag2
(g3
g4
(ltRp5573
(dp5574
g7
Nsg8
Nsbag2
(g3
g4
(ltRp5575
(dp5576
g7
Nsg8
Nsbag2
(g3
g4
(ltRp5577
(dp5578
g7
Nsg8
Nsbag2
(g3
g4
(ltRp5579
(dp5580
g7
Nsg8
Nsbag2
(g3
g4
(ltRp5581
(dp5582
g7
Nsg8
Nsbag2
(g3
g4
(ltRp5583
(dp5584
g7
Nsg8
Nsbag2
(g3
g4
(ltRp5585
(dp5586
g7
Nsg8
Nsbag2
(g3
g4
(ltRp5587
(dp5588
g7
Nsg8
Nsbag2
(g3
g4
(ltRp5589
(dp5590
g7
Nsg8
Nsbag2
(g3
g4
(ltRp5591
(dp5592
g7
Nsg8
Nsbag2
(g3
g4
(ltRp5593
(dp5594
g7
Nsg8
Nsbag2
(g3
g4
(ltRp5595
(dp5596
g7
Nsg8
Nsbag2
(g3
g4
(ltRp5597
(dp5598
g7
Nsg8
Nsbag2
(g3
g4
(ltRp5599
(dp5600
g7
Nsg8
Nsbag2
(g3
g4
(ltRp5601
(dp5602
g7
Nsg8
Nsbag2
(g3
g4
(ltRp5603
(dp5604
g7
Nsg8
Nsbag2
(g3
g4
(ltRp5605
(dp5606
g7
Nsg8
Nsbag2
(g3
g4
(ltRp5607
(dp5608
g7
Nsg8
Nsbag2
(g3
g4
(ltRp5609
(dp5610
g7
Nsg8
Nsbag2
(g3
g4
(ltRp5611
(dp5612
g7
Nsg8
Nsbag2
(g3
g4
(ltRp5613
(dp5614
g7
Nsg8
Nsbag2
(g3
g4
(ltRp5615
(dp5616
g7
Nsg8
Nsbag2
(g3
g4
(ltRp5617
(dp5618
g7
Nsg8
Nsbag2
(g3
g4
(ltRp5619
(dp5620
g7
Nsg8
Nsbag2
(g3
g4
(ltRp5621
(dp5622
g7
Nsg8
Nsbag2
(g3
g4
(ltRp5623
(dp5624
g7
Nsg8
Nsbag2
(g3
g4
(ltRp5625
(dp5626
g7
Nsg8
Nsbag2
(g3
g4
(ltRp5627
(dp5628
g7
Nsg8
Nsbag2
(g3
g4
(ltRp5629
(dp5630
g7
Nsg8
Nsbag2
(g3
g4
(ltRp5631
(dp5632
g7
Nsg8
Nsbag2
(g3
g4
(ltRp5633
(dp5634
g7
Nsg8
Nsbag2
(g3
g4
(ltRp5635
(dp5636
g7
Nsg8
Nsbag2
(g3
g4
(ltRp5637
(dp5638
g7
Nsg8
Nsbag2
(g3
g4
(ltRp5639
(dp5640
g7
Nsg8
Nsbag2
(g3
g4
(ltRp5641
(dp5642
g7
Nsg8
Nsbag2
(g3
g4
(ltRp5643
(dp5644
g7
Nsg8
Nsbag2
(g3
g4
(ltRp5645
(dp5646
g7
Nsg8
Nsbag2
(g3
g4
(ltRp5647
(dp5648
g7
Nsg8
Nsbag2
(g3
g4
(ltRp5649
(dp5650
g7
Nsg8
Nsbag2
(g3
g4
(ltRp5651
(dp5652
g7
Nsg8
Nsbag2
(g3
g4
(ltRp5653
(dp5654
g7
Nsg8
Nsbag2
(g3
g4
(ltRp5655
(dp5656
g7
Nsg8
Nsbag2
(g3
g4
(ltRp5657
(dp5658
g7
Nsg8
Nsbag2
(g3
g4
(ltRp5659
(dp5660
g7
Nsg8
Nsbag2
(g3
g4
(ltRp5661
(dp5662
g7
Nsg8
Nsbag2
(g3
g4
(ltRp5663
(dp5664
g7
Nsg8
Nsbag2
(g3
g4
(ltRp5665
(dp5666
g7
Nsg8
Nsbag2
(g3
g4
(ltRp5667
(dp5668
g7
Nsg8
Nsbag2
(g3
g4
(ltRp5669
(dp5670
g7
Nsg8
Nsbag2
(g3
g4
(ltRp5671
(dp5672
g7
Nsg8
Nsbag2
(g3
g4
(ltRp5673
(dp5674
g7
Nsg8
Nsbag2
(g3
g4
(ltRp5675
(dp5676
g7
Nsg8
Nsbag2
(g3
g4
(ltRp5677
(dp5678
g7
Nsg8
Nsbag2
(g3
g4
(ltRp5679
(dp5680
g7
Nsg8
Nsbag2
(g3
g4
(ltRp5681
(dp5682
g7
Nsg8
Nsbag2
(g3
g4
(ltRp5683
(dp5684
g7
Nsg8
Nsbag2
(g3
g4
(ltRp5685
(dp5686
g7
Nsg8
Nsbag2
(g3
g4
(ltRp5687
(dp5688
g7
Nsg8
Nsbag2
(g3
g4
(ltRp5689
(dp5690
g7
Nsg8
Nsbag2
(g3
g4
(ltRp5691
(dp5692
g7
Nsg8
Nsbag2
(g3
g4
(ltRp5693
(dp5694
g7
Nsg8
Nsbag2
(g3
g4
(ltRp5695
(dp5696
g7
Nsg8
Nsbag2
(g3
g4
(ltRp5697
(dp5698
g7
Nsg8
Nsbag2
(g3
g4
(ltRp5699
(dp5700
g7
Nsg8
Nsbag2
(g3
g4
(ltRp5701
(dp5702
g7
Nsg8
Nsbag2
(g3
g4
(ltRp5703
(dp5704
g7
Nsg8
Nsbag2
(g3
g4
(ltRp5705
(dp5706
g7
Nsg8
Nsbag2
(g3
g4
(ltRp5707
(dp5708
g7
Nsg8
Nsbag2
(g3
g4
(ltRp5709
(dp5710
g7
Nsg8
Nsbag2
(g3
g4
(ltRp5711
(dp5712
g7
Nsg8
Nsbag2
(g3
g4
(ltRp5713
(dp5714
g7
Nsg8
Nsbag2
(g3
g4
(ltRp5715
(dp5716
g7
Nsg8
Nsbag2
(g3
g4
(ltRp5717
(dp5718
g7
Nsg8
Nsbag2
(g3
g4
(ltRp5719
(dp5720
g7
Nsg8
Nsbag2
(g3
g4
(ltRp5721
(dp5722
g7
Nsg8
Nsbag2
(g3
g4
(ltRp5723
(dp5724
g7
Nsg8
Nsbag2
(g3
g4
(ltRp5725
(dp5726
g7
Nsg8
Nsbag2
(g3
g4
(ltRp5727
(dp5728
g7
Nsg8
Nsbag2
(g3
g4
(ltRp5729
(dp5730
g7
Nsg8
Nsbag2
(g3
g4
(ltRp5731
(dp5732
g7
Nsg8
Nsbag2
(g3
g4
(ltRp5733
(dp5734
g7
Nsg8
Nsbag2
(g3
g4
(ltRp5735
(dp5736
g7
Nsg8
Nsbag2
(g3
g4
(ltRp5737
(dp5738
g7
Nsg8
Nsbag2
(g3
g4
(ltRp5739
(dp5740
g7
Nsg8
Nsbag2
(g3
g4
(ltRp5741
(dp5742
g7
Nsg8
Nsbag2
(g3
g4
(ltRp5743
(dp5744
g7
Nsg8
Nsbag2
(g3
g4
(ltRp5745
(dp5746
g7
Nsg8
Nsbag2
(g3
g4
(ltRp5747
(dp5748
g7
Nsg8
Nsbag2
(g3
g4
(ltRp5749
(dp5750
g7
Nsg8
Nsbag2
(g3
g4
(ltRp5751
(dp5752
g7
Nsg8
Nsbag2
(g3
g4
(ltRp5753
(dp5754
g7
Nsg8
Nsbag2
(g3
g4
(ltRp5755
(dp5756
g7
Nsg8
Nsbag2
(g3
g4
(ltRp5757
(dp5758
g7
Nsg8
Nsbag2
(g3
g4
(ltRp5759
(dp5760
g7
Nsg8
Nsbag2
(g3
g4
(ltRp5761
(dp5762
g7
Nsg8
Nsbag2
(g3
g4
(ltRp5763
(dp5764
g7
Nsg8
Nsbag2
(g3
g4
(ltRp5765
(dp5766
g7
Nsg8
Nsbag2
(g3
g4
(ltRp5767
(dp5768
g7
Nsg8
Nsbag2
(g3
g4
(ltRp5769
(dp5770
g7
Nsg8
Nsbag2
(g3
g4
(ltRp5771
(dp5772
g7
Nsg8
Nsbag2
(g3
g4
(ltRp5773
(dp5774
g7
Nsg8
Nsbag2
(g3
g4
(ltRp5775
(dp5776
g7
Nsg8
Nsbag2
(g3
g4
(ltRp5777
(dp5778
g7
Nsg8
Nsbag2
(g3
g4
(ltRp5779
(dp5780
g7
Nsg8
Nsbag2
(g3
g4
(ltRp5781
(dp5782
g7
Nsg8
Nsbag2
(g3
g4
(ltRp5783
(dp5784
g7
Nsg8
Nsbag2
(g3
g4
(ltRp5785
(dp5786
g7
Nsg8
Nsbag2
(g3
g4
(ltRp5787
(dp5788
g7
Nsg8
Nsbag2
(g3
g4
(ltRp5789
(dp5790
g7
Nsg8
Nsbag2
(g3
g4
(ltRp5791
(dp5792
g7
Nsg8
Nsbag2
(g3
g4
(ltRp5793
(dp5794
g7
Nsg8
Nsbag2
(g3
g4
(ltRp5795
(dp5796
g7
Nsg8
Nsbag2
(g3
g4
(ltRp5797
(dp5798
g7
Nsg8
Nsbag2
(g3
g4
(ltRp5799
(dp5800
g7
Nsg8
Nsbag2
(g3
g4
(ltRp5801
(dp5802
g7
Nsg8
Nsbag2
(g3
g4
(ltRp5803
(dp5804
g7
Nsg8
Nsbag2
(g3
g4
(ltRp5805
(dp5806
g7
Nsg8
Nsbag2
(g3
g4
(ltRp5807
(dp5808
g7
Nsg8
Nsbag2
(g3
g4
(ltRp5809
(dp5810
g7
Nsg8
Nsbag2
(g3
g4
(ltRp5811
(dp5812
g7
Nsg8
Nsbag2
(g3
g4
(ltRp5813
(dp5814
g7
Nsg8
Nsbag2
(g3
g4
(ltRp5815
(dp5816
g7
Nsg8
Nsbag2
(g3
g4
(ltRp5817
(dp5818
g7
Nsg8
Nsbag2
(g3
g4
(ltRp5819
(dp5820
g7
Nsg8
Nsbag2
(g3
g4
(ltRp5821
(dp5822
g7
Nsg8
Nsbag2
(g3
g4
(ltRp5823
(dp5824
g7
Nsg8
Nsbag2
(g3
g4
(ltRp5825
(dp5826
g7
Nsg8
Nsbag2
(g3
g4
(ltRp5827
(dp5828
g7
Nsg8
Nsbag2
(g3
g4
(ltRp5829
(dp5830
g7
Nsg8
Nsbag2
(g3
g4
(ltRp5831
(dp5832
g7
Nsg8
Nsbag2
(g3
g4
(ltRp5833
(dp5834
g7
Nsg8
Nsbag2
(g3
g4
(ltRp5835
(dp5836
g7
Nsg8
Nsbag2
(g3
g4
(ltRp5837
(dp5838
g7
Nsg8
Nsbag2
(g3
g4
(ltRp5839
(dp5840
g7
Nsg8
Nsbag2
(g3
g4
(ltRp5841
(dp5842
g7
Nsg8
Nsbag2
(g3
g4
(ltRp5843
(dp5844
g7
Nsg8
Nsbag2
(g3
g4
(ltRp5845
(dp5846
g7
Nsg8
Nsbag2
(g3
g4
(ltRp5847
(dp5848
g7
Nsg8
Nsbag2
(g3
g4
(ltRp5849
(dp5850
g7
Nsg8
Nsbag2
(g3
g4
(ltRp5851
(dp5852
g7
Nsg8
Nsbag2
(g3
g4
(ltRp5853
(dp5854
g7
Nsg8
Nsbag2
(g3
g4
(ltRp5855
(dp5856
g7
Nsg8
Nsbag2
(g3
g4
(ltRp5857
(dp5858
g7
Nsg8
Nsbag2
(g3
g4
(ltRp5859
(dp5860
g7
Nsg8
Nsbag2
(g3
g4
(ltRp5861
(dp5862
g7
Nsg8
Nsbag2
(g3
g4
(ltRp5863
(dp5864
g7
Nsg8
Nsbag2
(g3
g4
(ltRp5865
(dp5866
g7
Nsg8
Nsbag2
(g3
g4
(ltRp5867
(dp5868
g7
Nsg8
Nsbag2
(g3
g4
(ltRp5869
(dp5870
g7
Nsg8
Nsbag2
(g3
g4
(ltRp5871
(dp5872
g7
Nsg8
Nsbag2
(g3
g4
(ltRp5873
(dp5874
g7
Nsg8
Nsbag2
(g3
g4
(ltRp5875
(dp5876
g7
Nsg8
Nsbag2
(g3
g4
(ltRp5877
(dp5878
g7
Nsg8
Nsbag2
(g3
g4
(ltRp5879
(dp5880
g7
Nsg8
Nsbag2
(g3
g4
(ltRp5881
(dp5882
g7
Nsg8
Nsbag2
(g3
g4
(ltRp5883
(dp5884
g7
Nsg8
Nsbag2
(g3
g4
(ltRp5885
(dp5886
g7
Nsg8
Nsbag2
(g3
g4
(ltRp5887
(dp5888
g7
Nsg8
Nsbag2
(g3
g4
(ltRp5889
(dp5890
g7
Nsg8
Nsbag2
(g3
g4
(ltRp5891
(dp5892
g7
Nsg8
Nsbag2
(g3
g4
(ltRp5893
(dp5894
g7
Nsg8
Nsbag2
(g3
g4
(ltRp5895
(dp5896
g7
Nsg8
Nsbag2
(g3
g4
(ltRp5897
(dp5898
g7
Nsg8
Nsbag2
(g3
g4
(ltRp5899
(dp5900
g7
Nsg8
Nsbag2
(g3
g4
(ltRp5901
(dp5902
g7
Nsg8
Nsbag2
(g3
g4
(ltRp5903
(dp5904
g7
Nsg8
Nsbag2
(g3
g4
(ltRp5905
(dp5906
g7
Nsg8
Nsbag2
(g3
g4
(ltRp5907
(dp5908
g7
Nsg8
Nsbag2
(g3
g4
(ltRp5909
(dp5910
g7
Nsg8
Nsbag2
(g3
g4
(ltRp5911
(dp5912
g7
Nsg8
Nsbag2
(g3
g4
(ltRp5913
(dp5914
g7
Nsg8
Nsbag2
(g3
g4
(ltRp5915
(dp5916
g7
Nsg8
Nsbag2
(g3
g4
(ltRp5917
(dp5918
g7
Nsg8
Nsbag2
(g3
g4
(ltRp5919
(dp5920
g7
Nsg8
Nsbag2
(g3
g4
(ltRp5921
(dp5922
g7
Nsg8
Nsbag2
(g3
g4
(ltRp5923
(dp5924
g7
Nsg8
Nsbag2
(g3
g4
(ltRp5925
(dp5926
g7
Nsg8
Nsbag2
(g3
g4
(ltRp5927
(dp5928
g7
Nsg8
Nsbag2
(g3
g4
(ltRp5929
(dp5930
g7
Nsg8
Nsbag2
(g3
g4
(ltRp5931
(dp5932
g7
Nsg8
Nsbag2
(g3
g4
(ltRp5933
(dp5934
g7
Nsg8
Nsbag2
(g3
g4
(ltRp5935
(dp5936
g7
Nsg8
Nsbag2
(g3
g4
(ltRp5937
(dp5938
g7
Nsg8
Nsbag2
(g3
g4
(ltRp5939
(dp5940
g7
Nsg8
Nsbag2
(g3
g4
(ltRp5941
(dp5942
g7
Nsg8
Nsbag2
(g3
g4
(ltRp5943
(dp5944
g7
Nsg8
Nsbag2
(g3
g4
(ltRp5945
(dp5946
g7
Nsg8
Nsbag2
(g3
g4
(ltRp5947
(dp5948
g7
Nsg8
Nsbag2
(g3
g4
(ltRp5949
(dp5950
g7
Nsg8
Nsbag2
(g3
g4
(ltRp5951
(dp5952
g7
Nsg8
Nsbag2
(g3
g4
(ltRp5953
(dp5954
g7
Nsg8
Nsbag2
(g3
g4
(ltRp5955
(dp5956
g7
Nsg8
Nsbag2
(g3
g4
(ltRp5957
(dp5958
g7
Nsg8
Nsbag2
(g3
g4
(ltRp5959
(dp5960
g7
Nsg8
Nsbag2
(g3
g4
(ltRp5961
(dp5962
g7
Nsg8
Nsbag2
(g3
g4
(ltRp5963
(dp5964
g7
Nsg8
Nsbag2
(g3
g4
(ltRp5965
(dp5966
g7
Nsg8
Nsbag2
(g3
g4
(ltRp5967
(dp5968
g7
Nsg8
Nsbag2
(g3
g4
(ltRp5969
(dp5970
g7
Nsg8
Nsbag2
(g3
g4
(ltRp5971
(dp5972
g7
Nsg8
Nsbag2
(g3
g4
(ltRp5973
(dp5974
g7
Nsg8
Nsbag2
(g3
g4
(ltRp5975
(dp5976
g7
Nsg8
Nsbag2
(g3
g4
(ltRp5977
(dp5978
g7
Nsg8
Nsbag2
(g3
g4
(ltRp5979
(dp5980
g7
Nsg8
Nsbag2
(g3
g4
(ltRp5981
(dp5982
g7
Nsg8
Nsbag2
(g3
g4
(ltRp5983
(dp5984
g7
Nsg8
Nsbag2
(g3
g4
(ltRp5985
(dp5986
g7
Nsg8
Nsbag2
(g3
g4
(ltRp5987
(dp5988
g7
Nsg8
Nsbag2
(g3
g4
(ltRp5989
(dp5990
g7
Nsg8
Nsbag2
(g3
g4
(ltRp5991
(dp5992
g7
Nsg8
Nsbag2
(g3
g4
(ltRp5993
(dp5994
g7
Nsg8
Nsbag2
(g3
g4
(ltRp5995
(dp5996
g7
Nsg8
Nsbag2
(g3
g4
(ltRp5997
(dp5998
g7
Nsg8
Nsbag2
(g3
g4
(ltRp5999
(dp6000
g7
Nsg8
Nsbag2
(g3
g4
(ltRp6001
(dp6002
g7
Nsg8
Nsbag2
(g3
g4
(ltRp6003
(dp6004
g7
Nsg8
Nsbag2
(g3
g4
(ltRp6005
(dp6006
g7
Nsg8
Nsbag2
(g3
g4
(ltRp6007
(dp6008
g7
Nsg8
Nsbag2
(g3
g4
(ltRp6009
(dp6010
g7
Nsg8
Nsbag2
(g3
g4
(ltRp6011
(dp6012
g7
Nsg8
Nsbag2
(g3
g4
(ltRp6013
(dp6014
g7
Nsg8
Nsbag2
(g3
g4
(ltRp6015
(dp6016
g7
Nsg8
Nsbag2
(g3
g4
(ltRp6017
(dp6018
g7
Nsg8
Nsbag2
(g3
g4
(ltRp6019
(dp6020
g7
Nsg8
Nsbag2
(g3
g4
(ltRp6021
(dp6022
g7
Nsg8
Nsbag2
(g3
g4
(ltRp6023
(dp6024
g7
Nsg8
Nsbag2
(g3
g4
(ltRp6025
(dp6026
g7
Nsg8
Nsbag2
(g3
g4
(ltRp6027
(dp6028
g7
Nsg8
Nsbag2
(g3
g4
(ltRp6029
(dp6030
g7
Nsg8
Nsbag2
(g3
g4
(ltRp6031
(dp6032
g7
Nsg8
Nsbag2
(g3
g4
(ltRp6033
(dp6034
g7
Nsg8
Nsbag2
(g3
g4
(ltRp6035
(dp6036
g7
Nsg8
Nsbag2
(g3
g4
(ltRp6037
(dp6038
g7
Nsg8
Nsbag2
(g3
g4
(ltRp6039
(dp6040
g7
Nsg8
Nsbag2
(g3
g4
(ltRp6041
(dp6042
g7
Nsg8
Nsbag2
(g3
g4
(ltRp6043
(dp6044
g7
Nsg8
Nsbag2
(g3
g4
(ltRp6045
(dp6046
g7
Nsg8
Nsbag2
(g3
g4
(ltRp6047
(dp6048
g7
Nsg8
Nsbag2
(g3
g4
(ltRp6049
(dp6050
g7
Nsg8
Nsbag2
(g3
g4
(ltRp6051
(dp6052
g7
Nsg8
Nsbag2
(g3
g4
(ltRp6053
(dp6054
g7
Nsg8
Nsbag2
(g3
g4
(ltRp6055
(dp6056
g7
Nsg8
Nsbag2
(g3
g4
(ltRp6057
(dp6058
g7
Nsg8
Nsbag2
(g3
g4
(ltRp6059
(dp6060
g7
Nsg8
Nsbag2
(g3
g4
(ltRp6061
(dp6062
g7
Nsg8
Nsbag2
(g3
g4
(ltRp6063
(dp6064
g7
Nsg8
Nsbag2
(g3
g4
(ltRp6065
(dp6066
g7
Nsg8
Nsbag2
(g3
g4
(ltRp6067
(dp6068
g7
Nsg8
Nsbag2
(g3
g4
(ltRp6069
(dp6070
g7
Nsg8
Nsbag2
(g3
g4
(ltRp6071
(dp6072
g7
Nsg8
Nsbag2
(g3
g4
(ltRp6073
(dp6074
g7
Nsg8
Nsbag2
(g3
g4
(ltRp6075
(dp6076
g7
Nsg8
Nsbag2
(g3
g4
(ltRp6077
(dp6078
g7
Nsg8
Nsbag2
(g3
g4
(ltRp6079
(dp6080
g7
Nsg8
Nsbag2
(g3
g4
(ltRp6081
(dp6082
g7
Nsg8
Nsbag2
(g3
g4
(ltRp6083
(dp6084
g7
Nsg8
Nsbag2
(g3
g4
(ltRp6085
(dp6086
g7
Nsg8
Nsbag2
(g3
g4
(ltRp6087
(dp6088
g7
Nsg8
Nsbag2
(g3
g4
(ltRp6089
(dp6090
g7
Nsg8
Nsbag2
(g3
g4
(ltRp6091
(dp6092
g7
Nsg8
Nsbag2
(g3
g4
(ltRp6093
(dp6094
g7
Nsg8
Nsbag2
(g3
g4
(ltRp6095
(dp6096
g7
Nsg8
Nsbag2
(g3
g4
(ltRp6097
(dp6098
g7
Nsg8
Nsbag2
(g3
g4
(ltRp6099
(dp6100
g7
Nsg8
Nsbag2
(g3
g4
(ltRp6101
(dp6102
g7
Nsg8
Nsbag2
(g3
g4
(ltRp6103
(dp6104
g7
Nsg8
Nsbag2
(g3
g4
(ltRp6105
(dp6106
g7
Nsg8
Nsbag2
(g3
g4
(ltRp6107
(dp6108
g7
Nsg8
Nsbag2
(g3
g4
(ltRp6109
(dp6110
g7
Nsg8
Nsbag2
(g3
g4
(ltRp6111
(dp6112
g7
Nsg8
Nsbag2
(g3
g4
(ltRp6113
(dp6114
g7
Nsg8
Nsbag2
(g3
g4
(ltRp6115
(dp6116
g7
Nsg8
Nsbag2
(g3
g4
(ltRp6117
(dp6118
g7
Nsg8
Nsbag2
(g3
g4
(ltRp6119
(dp6120
g7
Nsg8
Nsbag2
(g3
g4
(ltRp6121
(dp6122
g7
Nsg8
Nsbag2
(g3
g4
(ltRp6123
(dp6124
g7
Nsg8
Nsbag2
(g3
g4
(ltRp6125
(dp6126
g7
Nsg8
Nsbag2
(g3
g4
(ltRp6127
(dp6128
g7
Nsg8
Nsbag2
(g3
g4
(ltRp6129
(dp6130
g7
Nsg8
Nsbag2
(g3
g4
(ltRp6131
(dp6132
g7
Nsg8
Nsbag2
(g3
g4
(ltRp6133
(dp6134
g7
Nsg8
Nsbag2
(g3
g4
(ltRp6135
(dp6136
g7
Nsg8
Nsbag2
(g3
g4
(ltRp6137
(dp6138
g7
Nsg8
Nsbag2
(g3
g4
(ltRp6139
(dp6140
g7
Nsg8
Nsbag2
(g3
g4
(ltRp6141
(dp6142
g7
Nsg8
Nsbag2
(g3
g4
(ltRp6143
(dp6144
g7
Nsg8
Nsbag2
(g3
g4
(ltRp6145
(dp6146
g7
Nsg8
Nsbag2
(g3
g4
(ltRp6147
(dp6148
g7
Nsg8
Nsbag2
(g3
g4
(ltRp6149
(dp6150
g7
Nsg8
Nsbag2
(g3
g4
(ltRp6151
(dp6152
g7
Nsg8
Nsbag2
(g3
g4
(ltRp6153
(dp6154
g7
Nsg8
Nsbag2
(g3
g4
(ltRp6155
(dp6156
g7
Nsg8
Nsbag2
(g3
g4
(ltRp6157
(dp6158
g7
Nsg8
Nsbag2
(g3
g4
(ltRp6159
(dp6160
g7
Nsg8
Nsbag2
(g3
g4
(ltRp6161
(dp6162
g7
Nsg8
Nsbag2
(g3
g4
(ltRp6163
(dp6164
g7
Nsg8
Nsbag2
(g3
g4
(ltRp6165
(dp6166
g7
Nsg8
Nsbag2
(g3
g4
(ltRp6167
(dp6168
g7
Nsg8
Nsbag2
(g3
g4
(ltRp6169
(dp6170
g7
Nsg8
Nsbag2
(g3
g4
(ltRp6171
(dp6172
g7
Nsg8
Nsbag2
(g3
g4
(ltRp6173
(dp6174
g7
Nsg8
Nsbag2
(g3
g4
(ltRp6175
(dp6176
g7
Nsg8
Nsbag2
(g3
g4
(ltRp6177
(dp6178
g7
Nsg8
Nsbag2
(g3
g4
(ltRp6179
(dp6180
g7
Nsg8
Nsbag2
(g3
g4
(ltRp6181
(dp6182
g7
Nsg8
Nsbag2
(g3
g4
(ltRp6183
(dp6184
g7
Nsg8
Nsbag2
(g3
g4
(ltRp6185
(dp6186
g7
Nsg8
Nsbag2
(g3
g4
(ltRp6187
(dp6188
g7
Nsg8
Nsbag2
(g3
g4
(ltRp6189
(dp6190
g7
Nsg8
Nsbag2
(g3
g4
(ltRp6191
(dp6192
g7
Nsg8
Nsbag2
(g3
g4
(ltRp6193
(dp6194
g7
Nsg8
Nsbag2
(g3
g4
(ltRp6195
(dp6196
g7
Nsg8
Nsbag2
(g3
g4
(ltRp6197
(dp6198
g7
Nsg8
Nsbag2
(g3
g4
(ltRp6199
(dp6200
g7
Nsg8
Nsbag2
(g3
g4
(ltRp6201
(dp6202
g7
Nsg8
Nsbag2
(g3
g4
(ltRp6203
(dp6204
g7
Nsg8
Nsbag2
(g3
g4
(ltRp6205
(dp6206
g7
Nsg8
Nsbag2
(g3
g4
(ltRp6207
(dp6208
g7
Nsg8
Nsbag2
(g3
g4
(ltRp6209
(dp6210
g7
Nsg8
Nsbag2
(g3
g4
(ltRp6211
(dp6212
g7
Nsg8
Nsbag2
(g3
g4
(ltRp6213
(dp6214
g7
Nsg8
Nsbag2
(g3
g4
(ltRp6215
(dp6216
g7
Nsg8
Nsbag2
(g3
g4
(ltRp6217
(dp6218
g7
Nsg8
Nsbag2
(g3
g4
(ltRp6219
(dp6220
g7
Nsg8
Nsbag2
(g3
g4
(ltRp6221
(dp6222
g7
Nsg8
Nsbag2
(g3
g4
(ltRp6223
(dp6224
g7
Nsg8
Nsbag2
(g3
g4
(ltRp6225
(dp6226
g7
Nsg8
Nsbag2
(g3
g4
(ltRp6227
(dp6228
g7
Nsg8
Nsbag2
(g3
g4
(ltRp6229
(dp6230
g7
Nsg8
Nsbag2
(g3
g4
(ltRp6231
(dp6232
g7
Nsg8
Nsbag2
(g3
g4
(ltRp6233
(dp6234
g7
Nsg8
Nsbag2
(g3
g4
(ltRp6235
(dp6236
g7
Nsg8
Nsbag2
(g3
g4
(ltRp6237
(dp6238
g7
Nsg8
Nsbag2
(g3
g4
(ltRp6239
(dp6240
g7
Nsg8
Nsbag2
(g3
g4
(ltRp6241
(dp6242
g7
Nsg8
Nsbag2
(g3
g4
(ltRp6243
(dp6244
g7
Nsg8
Nsbag2
(g3
g4
(ltRp6245
(dp6246
g7
Nsg8
Nsbag2
(g3
g4
(ltRp6247
(dp6248
g7
Nsg8
Nsbag2
(g3
g4
(ltRp6249
(dp6250
g7
Nsg8
Nsbag2
(g3
g4
(ltRp6251
(dp6252
g7
Nsg8
Nsbag2
(g3
g4
(ltRp6253
(dp6254
g7
Nsg8
Nsbag2
(g3
g4
(ltRp6255
(dp6256
g7
Nsg8
Nsbag2
(g3
g4
(ltRp6257
(dp6258
g7
Nsg8
Nsbag2
(g3
g4
(ltRp6259
(dp6260
g7
Nsg8
Nsbag2
(g3
g4
(ltRp6261
(dp6262
g7
Nsg8
Nsbag2
(g3
g4
(ltRp6263
(dp6264
g7
Nsg8
Nsbag2
(g3
g4
(ltRp6265
(dp6266
g7
Nsg8
Nsbag2
(g3
g4
(ltRp6267
(dp6268
g7
Nsg8
Nsbag2
(g3
g4
(ltRp6269
(dp6270
g7
Nsg8
Nsbag2
(g3
g4
(ltRp6271
(dp6272
g7
Nsg8
Nsbag2
(g3
g4
(ltRp6273
(dp6274
g7
Nsg8
Nsbag2
(g3
g4
(ltRp6275
(dp6276
g7
Nsg8
Nsbag2
(g3
g4
(ltRp6277
(dp6278
g7
Nsg8
Nsbag2
(g3
g4
(ltRp6279
(dp6280
g7
Nsg8
Nsbag2
(g3
g4
(ltRp6281
(dp6282
g7
Nsg8
Nsbag2
(g3
g4
(ltRp6283
(dp6284
g7
Nsg8
Nsbag2
(g3
g4
(ltRp6285
(dp6286
g7
Nsg8
Nsbag2
(g3
g4
(ltRp6287
(dp6288
g7
Nsg8
Nsbag2
(g3
g4
(ltRp6289
(dp6290
g7
Nsg8
Nsbag2
(g3
g4
(ltRp6291
(dp6292
g7
Nsg8
Nsbag2
(g3
g4
(ltRp6293
(dp6294
g7
Nsg8
Nsbag2
(g3
g4
(ltRp6295
(dp6296
g7
Nsg8
Nsbag2
(g3
g4
(ltRp6297
(dp6298
g7
Nsg8
Nsbag2
(g3
g4
(ltRp6299
(dp6300
g7
Nsg8
Nsbag2
(g3
g4
(ltRp6301
(dp6302
g7
Nsg8
Nsbag2
(g3
g4
(ltRp6303
(dp6304
g7
Nsg8
Nsbag2
(g3
g4
(ltRp6305
(dp6306
g7
Nsg8
Nsbag2
(g3
g4
(ltRp6307
(dp6308
g7
Nsg8
Nsbag2
(g3
g4
(ltRp6309
(dp6310
g7
Nsg8
Nsbag2
(g3
g4
(ltRp6311
(dp6312
g7
Nsg8
Nsbag2
(g3
g4
(ltRp6313
(dp6314
g7
Nsg8
Nsbag2
(g3
g4
(ltRp6315
(dp6316
g7
Nsg8
Nsbag2
(g3
g4
(ltRp6317
(dp6318
g7
Nsg8
Nsbag2
(g3
g4
(ltRp6319
(dp6320
g7
Nsg8
Nsbag2
(g3
g4
(ltRp6321
(dp6322
g7
Nsg8
Nsbag2
(g3
g4
(ltRp6323
(dp6324
g7
Nsg8
Nsbag2
(g3
g4
(ltRp6325
(dp6326
g7
Nsg8
Nsbag2
(g3
g4
(ltRp6327
(dp6328
g7
Nsg8
Nsbag2
(g3
g4
(ltRp6329
(dp6330
g7
Nsg8
Nsbag2
(g3
g4
(ltRp6331
(dp6332
g7
Nsg8
Nsbag2
(g3
g4
(ltRp6333
(dp6334
g7
Nsg8
Nsbag2
(g3
g4
(ltRp6335
(dp6336
g7
Nsg8
Nsbag2
(g3
g4
(ltRp6337
(dp6338
g7
Nsg8
Nsba.